!<arch>
//                                              534       `
ft_lstnew_bonus.o/
ft_lstadd_front_bonus.o/
ft_lstsize_bonus.o/
ft_lstlast_bonus.o/
ft_lstadd_back_bonus.o/
ft_lstdelone_bonus.o/
ft_lstclear_bonus.o/
ft_lstiter_bonus.o/
ft_lstmap_bonus.o/
get_next_line_utils.o/
ft_printf_handle_c.o/
ft_printf_handle_di.o/
ft_printf_handle_u.o/
ft_printf_handle_p.o/
ft_printf_handle_percent.o/
ft_printf_handle_s.o/
ft_printf_handle_x.o/
ft_printf_handle_xx.o/
ft_realloc_copy_until_zeroed.o/
ft_strarr_size.o/
ft_strjoin_free_s1.o/
ft_strjoin_free_both.o/
ft_split_wildcards.o/
ft_iswhitespace.o/
ft_isalpha.o/   0           0     0     644     6991      `
	.file	"ft_isalpha.c"
# GNU C17 (Ubuntu 13.2.0-23ubuntu4) version 13.2.0 (x86_64-linux-gnu)
#	compiled by GNU C version 13.2.0, GMP version 6.3.0, MPFR version 4.2.1, MPC version 1.3.1, isl version isl-0.26-GMP

# GGC heuristics: --param ggc-min-expand=100 --param ggc-min-heapsize=131072
# options passed: -march=skylake -mmmx -mpopcnt -msse -msse2 -msse3 -mssse3 -msse4.1 -msse4.2 -mavx -mno-sse4a -mno-fma4 -mno-xop -mfma -mno-avx512f -mbmi -mbmi2 -maes -mpclmul -mno-avx512vl -mno-avx512bw -mno-avx512dq -mno-avx512cd -mno-avx512er -mno-avx512pf -mno-avx512vbmi -mno-avx512ifma -mno-avx5124vnniw -mno-avx5124fmaps -mno-avx512vpopcntdq -mno-avx512vbmi2 -mno-gfni -mno-vpclmulqdq -mno-avx512vnni -mno-avx512bitalg -mno-avx512bf16 -mno-avx512vp2intersect -mno-3dnow -madx -mabm -mno-cldemote -mclflushopt -mno-clwb -mno-clzero -mcx16 -mno-enqcmd -mf16c -mfsgsbase -mfxsr -mhle -msahf -mno-lwp -mlzcnt -mmovbe -mno-movdir64b -mno-movdiri -mno-mwaitx -mno-pconfig -mno-pku -mno-prefetchwt1 -mprfchw -mno-ptwrite -mno-rdpid -mrdrnd -mrdseed -mrtm -mno-serialize -msgx -mno-sha -mno-shstk -mno-tbm -mno-tsxldtrk -mno-vaes -mno-waitpkg -mno-wbnoinvd -mxsave -mxsavec -mxsaveopt -mxsaves -mno-amx-tile -mno-amx-int8 -mno-amx-bf16 -mno-uintr -mno-hreset -mno-kl -mno-widekl -mno-avxvnni -mno-avx512fp16 -mno-avxifma -mno-avxvnniint8 -mno-avxneconvert -mno-cmpccxadd -mno-amx-fp16 -mno-prefetchi -mno-raoint -mno-amx-complex --param=l1-cache-size=32 --param=l1-cache-line-size=64 --param=l2-cache-size=16384 -mtune=skylake -mavx2 -g -Ofast -p -fasynchronous-unwind-tables -fstack-protector-strong -fstack-clash-protection -fcf-protection
	.text
.Ltext0:
	.file 0 "/home/fabi/42/cub3D/libft" "ft_isalpha.c"
	.p2align 4
	.globl	ft_isalpha
	.type	ft_isalpha, @function
ft_isalpha:
.LVL0:
.LFB0:
	.file 1 "ft_isalpha.c"
	.loc 1 14 1 view -0
	.cfi_startproc
	.loc 1 14 1 is_stmt 0 view .LVU1
	endbr64	
	pushq	%rbp	#
	.cfi_def_cfa_offset 16
	.cfi_offset 6, -16
	movq	%rsp, %rbp	#,
	.cfi_def_cfa_register 6
1:	call	*mcount@GOTPCREL(%rip)
# ft_isalpha.c:14: {
	.loc 1 14 1 view .LVU2
	.loc 1 15 2 is_stmt 1 view .LVU3
# ft_isalpha.c:20: }
	.loc 1 20 1 is_stmt 0 view .LVU4
	xorl	%eax, %eax	#
# ft_isalpha.c:15: 	if (c >= 65 && c <= 90)
	.loc 1 15 5 view .LVU5
	andl	$-33, %edi	#, tmp89
.LVL1:
# ft_isalpha.c:20: }
	.loc 1 20 1 view .LVU6
	popq	%rbp	#
	.cfi_def_cfa 7, 8
# ft_isalpha.c:15: 	if (c >= 65 && c <= 90)
	.loc 1 15 5 view .LVU7
	subl	$65, %edi	#, tmp90
# ft_isalpha.c:20: }
	.loc 1 20 1 view .LVU8
	cmpl	$25, %edi	#, tmp90
	setbe	%al	#,
	ret	
	.cfi_endproc
.LFE0:
	.size	ft_isalpha, .-ft_isalpha
.Letext0:
	.section	.note.GNU-stack,"",@progbits
	.section	.note.gnu.property,"a"
	.align 8
	.long	1f - 0f
	.long	4f - 1f
	.long	5
0:
	.string	"GNU"
1:
	.align 8
	.long	0xc0000002
	.long	3f - 2f
2:
	.long	0x3
3:
	.align 8
4:

ft_isdigit.o/   0           0     0     644     6839      `
	.file	"ft_isdigit.c"
# GNU C17 (Ubuntu 13.2.0-23ubuntu4) version 13.2.0 (x86_64-linux-gnu)
#	compiled by GNU C version 13.2.0, GMP version 6.3.0, MPFR version 4.2.1, MPC version 1.3.1, isl version isl-0.26-GMP

# GGC heuristics: --param ggc-min-expand=100 --param ggc-min-heapsize=131072
# options passed: -march=skylake -mmmx -mpopcnt -msse -msse2 -msse3 -mssse3 -msse4.1 -msse4.2 -mavx -mno-sse4a -mno-fma4 -mno-xop -mfma -mno-avx512f -mbmi -mbmi2 -maes -mpclmul -mno-avx512vl -mno-avx512bw -mno-avx512dq -mno-avx512cd -mno-avx512er -mno-avx512pf -mno-avx512vbmi -mno-avx512ifma -mno-avx5124vnniw -mno-avx5124fmaps -mno-avx512vpopcntdq -mno-avx512vbmi2 -mno-gfni -mno-vpclmulqdq -mno-avx512vnni -mno-avx512bitalg -mno-avx512bf16 -mno-avx512vp2intersect -mno-3dnow -madx -mabm -mno-cldemote -mclflushopt -mno-clwb -mno-clzero -mcx16 -mno-enqcmd -mf16c -mfsgsbase -mfxsr -mhle -msahf -mno-lwp -mlzcnt -mmovbe -mno-movdir64b -mno-movdiri -mno-mwaitx -mno-pconfig -mno-pku -mno-prefetchwt1 -mprfchw -mno-ptwrite -mno-rdpid -mrdrnd -mrdseed -mrtm -mno-serialize -msgx -mno-sha -mno-shstk -mno-tbm -mno-tsxldtrk -mno-vaes -mno-waitpkg -mno-wbnoinvd -mxsave -mxsavec -mxsaveopt -mxsaves -mno-amx-tile -mno-amx-int8 -mno-amx-bf16 -mno-uintr -mno-hreset -mno-kl -mno-widekl -mno-avxvnni -mno-avx512fp16 -mno-avxifma -mno-avxvnniint8 -mno-avxneconvert -mno-cmpccxadd -mno-amx-fp16 -mno-prefetchi -mno-raoint -mno-amx-complex --param=l1-cache-size=32 --param=l1-cache-line-size=64 --param=l2-cache-size=16384 -mtune=skylake -mavx2 -g -Ofast -p -fasynchronous-unwind-tables -fstack-protector-strong -fstack-clash-protection -fcf-protection
	.text
.Ltext0:
	.file 0 "/home/fabi/42/cub3D/libft" "ft_isdigit.c"
	.p2align 4
	.globl	ft_isdigit
	.type	ft_isdigit, @function
ft_isdigit:
.LVL0:
.LFB0:
	.file 1 "ft_isdigit.c"
	.loc 1 14 1 view -0
	.cfi_startproc
	.loc 1 14 1 is_stmt 0 view .LVU1
	endbr64	
	pushq	%rbp	#
	.cfi_def_cfa_offset 16
	.cfi_offset 6, -16
	movq	%rsp, %rbp	#,
	.cfi_def_cfa_register 6
1:	call	*mcount@GOTPCREL(%rip)
# ft_isdigit.c:14: {
	.loc 1 14 1 view .LVU2
	.loc 1 15 2 is_stmt 1 view .LVU3
# ft_isdigit.c:18: }
	.loc 1 18 1 is_stmt 0 view .LVU4
	xorl	%eax, %eax	#
# ft_isdigit.c:15: 	if (c >= 48 && c <= 57)
	.loc 1 15 14 view .LVU5
	subl	$48, %edi	#, tmp88
.LVL1:
# ft_isdigit.c:18: }
	.loc 1 18 1 view .LVU6
	popq	%rbp	#
	.cfi_def_cfa 7, 8
	cmpl	$9, %edi	#, tmp88
	setbe	%al	#,
	ret	
	.cfi_endproc
.LFE0:
	.size	ft_isdigit, .-ft_isdigit
.Letext0:
	.section	.note.GNU-stack,"",@progbits
	.section	.note.gnu.property,"a"
	.align 8
	.long	1f - 0f
	.long	4f - 1f
	.long	5
0:
	.string	"GNU"
1:
	.align 8
	.long	0xc0000002
	.long	3f - 2f
2:
	.long	0x3
3:
	.align 8
4:

ft_isalnum.o/   0           0     0     644     10653     `
	.file	"ft_isalnum.c"
# GNU C17 (Ubuntu 13.2.0-23ubuntu4) version 13.2.0 (x86_64-linux-gnu)
#	compiled by GNU C version 13.2.0, GMP version 6.3.0, MPFR version 4.2.1, MPC version 1.3.1, isl version isl-0.26-GMP

# GGC heuristics: --param ggc-min-expand=100 --param ggc-min-heapsize=131072
# options passed: -march=skylake -mmmx -mpopcnt -msse -msse2 -msse3 -mssse3 -msse4.1 -msse4.2 -mavx -mno-sse4a -mno-fma4 -mno-xop -mfma -mno-avx512f -mbmi -mbmi2 -maes -mpclmul -mno-avx512vl -mno-avx512bw -mno-avx512dq -mno-avx512cd -mno-avx512er -mno-avx512pf -mno-avx512vbmi -mno-avx512ifma -mno-avx5124vnniw -mno-avx5124fmaps -mno-avx512vpopcntdq -mno-avx512vbmi2 -mno-gfni -mno-vpclmulqdq -mno-avx512vnni -mno-avx512bitalg -mno-avx512bf16 -mno-avx512vp2intersect -mno-3dnow -madx -mabm -mno-cldemote -mclflushopt -mno-clwb -mno-clzero -mcx16 -mno-enqcmd -mf16c -mfsgsbase -mfxsr -mhle -msahf -mno-lwp -mlzcnt -mmovbe -mno-movdir64b -mno-movdiri -mno-mwaitx -mno-pconfig -mno-pku -mno-prefetchwt1 -mprfchw -mno-ptwrite -mno-rdpid -mrdrnd -mrdseed -mrtm -mno-serialize -msgx -mno-sha -mno-shstk -mno-tbm -mno-tsxldtrk -mno-vaes -mno-waitpkg -mno-wbnoinvd -mxsave -mxsavec -mxsaveopt -mxsaves -mno-amx-tile -mno-amx-int8 -mno-amx-bf16 -mno-uintr -mno-hreset -mno-kl -mno-widekl -mno-avxvnni -mno-avx512fp16 -mno-avxifma -mno-avxvnniint8 -mno-avxneconvert -mno-cmpccxadd -mno-amx-fp16 -mno-prefetchi -mno-raoint -mno-amx-complex --param=l1-cache-size=32 --param=l1-cache-line-size=64 --param=l2-cache-size=16384 -mtune=skylake -mavx2 -g -Ofast -p -fasynchronous-unwind-tables -fstack-protector-strong -fstack-clash-protection -fcf-protection
	.text
.Ltext0:
	.file 0 "/home/fabi/42/cub3D/libft" "ft_isalnum.c"
	.p2align 4
	.globl	ft_isalnum
	.type	ft_isalnum, @function
ft_isalnum:
.LVL0:
.LFB2:
	.file 1 "ft_isalnum.c"
	.loc 1 30 1 view -0
	.cfi_startproc
	.loc 1 30 1 is_stmt 0 view .LVU1
	endbr64	
	pushq	%rbp	#
	.cfi_def_cfa_offset 16
	.cfi_offset 6, -16
	movq	%rsp, %rbp	#,
	.cfi_def_cfa_register 6
1:	call	*mcount@GOTPCREL(%rip)
# ft_isalnum.c:30: {
	.loc 1 30 1 view .LVU2
	.loc 1 31 2 is_stmt 1 view .LVU3
.LVL1:
.LBB6:
.LBI6:
	.loc 1 20 12 view .LVU4
.LBB7:
	.loc 1 22 2 view .LVU5
.LBE7:
.LBE6:
# ft_isalnum.c:32: 		return (1);
	.loc 1 32 10 is_stmt 0 view .LVU6
	movl	$1, %edx	#, <retval>
.LBB9:
.LBB8:
# ft_isalnum.c:22: 	if (c >= 65 && c <= 90)
	.loc 1 22 5 view .LVU7
	movl	%edi, %eax	# c, tmp90
	andl	$-33, %eax	#, tmp90
	subl	$65, %eax	#, tmp91
	cmpl	$25, %eax	#, tmp91
	jbe	.L1	#,
	.loc 1 24 2 is_stmt 1 view .LVU8
.LVL2:
	.loc 1 24 2 is_stmt 0 view .LVU9
.LBE8:
.LBE9:
.LBB10:
.LBI10:
	.loc 1 13 12 is_stmt 1 view .LVU10
.LBB11:
	.loc 1 15 2 view .LVU11
# ft_isalnum.c:15: 	if (c >= 48 && c <= 57)
	.loc 1 15 14 is_stmt 0 view .LVU12
	subl	$48, %edi	#, tmp92
.LVL3:
# ft_isalnum.c:15: 	if (c >= 48 && c <= 57)
	.loc 1 15 5 view .LVU13
	xorl	%edx, %edx	# <retval>
	cmpl	$9, %edi	#, tmp92
	setbe	%dl	#, <retval>
.LVL4:
.L1:
	.loc 1 15 5 view .LVU14
.LBE11:
.LBE10:
# ft_isalnum.c:34: }
	.loc 1 34 1 view .LVU15
	movl	%edx, %eax	# <retval>,
	popq	%rbp	#
	.cfi_def_cfa 7, 8
	ret	
	.cfi_endproc
.LFE2:
	.size	ft_isalnum, .-ft_isalnum
.Letext0:
	.section	.note.GNU-stack,"",@progbits
	.section	.note.gnu.property,"a"
	.align 8
	.long	1f - 0f
	.long	4f - 1f
	.long	5
0:
	.string	"GNU"
1:
	.align 8
	.long	0xc0000002
	.long	3f - 2f
2:
	.long	0x3
3:
	.align 8
4:

ft_isascii.o/   0           0     0     644     6230      `
	.file	"ft_isascii.c"
# GNU C17 (Ubuntu 13.2.0-23ubuntu4) version 13.2.0 (x86_64-linux-gnu)
#	compiled by GNU C version 13.2.0, GMP version 6.3.0, MPFR version 4.2.1, MPC version 1.3.1, isl version isl-0.26-GMP

# GGC heuristics: --param ggc-min-expand=100 --param ggc-min-heapsize=131072
# options passed: -march=skylake -mmmx -mpopcnt -msse -msse2 -msse3 -mssse3 -msse4.1 -msse4.2 -mavx -mno-sse4a -mno-fma4 -mno-xop -mfma -mno-avx512f -mbmi -mbmi2 -maes -mpclmul -mno-avx512vl -mno-avx512bw -mno-avx512dq -mno-avx512cd -mno-avx512er -mno-avx512pf -mno-avx512vbmi -mno-avx512ifma -mno-avx5124vnniw -mno-avx5124fmaps -mno-avx512vpopcntdq -mno-avx512vbmi2 -mno-gfni -mno-vpclmulqdq -mno-avx512vnni -mno-avx512bitalg -mno-avx512bf16 -mno-avx512vp2intersect -mno-3dnow -madx -mabm -mno-cldemote -mclflushopt -mno-clwb -mno-clzero -mcx16 -mno-enqcmd -mf16c -mfsgsbase -mfxsr -mhle -msahf -mno-lwp -mlzcnt -mmovbe -mno-movdir64b -mno-movdiri -mno-mwaitx -mno-pconfig -mno-pku -mno-prefetchwt1 -mprfchw -mno-ptwrite -mno-rdpid -mrdrnd -mrdseed -mrtm -mno-serialize -msgx -mno-sha -mno-shstk -mno-tbm -mno-tsxldtrk -mno-vaes -mno-waitpkg -mno-wbnoinvd -mxsave -mxsavec -mxsaveopt -mxsaves -mno-amx-tile -mno-amx-int8 -mno-amx-bf16 -mno-uintr -mno-hreset -mno-kl -mno-widekl -mno-avxvnni -mno-avx512fp16 -mno-avxifma -mno-avxvnniint8 -mno-avxneconvert -mno-cmpccxadd -mno-amx-fp16 -mno-prefetchi -mno-raoint -mno-amx-complex --param=l1-cache-size=32 --param=l1-cache-line-size=64 --param=l2-cache-size=16384 -mtune=skylake -mavx2 -g -Ofast -p -fasynchronous-unwind-tables -fstack-protector-strong -fstack-clash-protection -fcf-protection
	.text
.Ltext0:
	.file 0 "/home/fabi/42/cub3D/libft" "ft_isascii.c"
	.p2align 4
	.globl	ft_isascii
	.type	ft_isascii, @function
ft_isascii:
.LVL0:
.LFB0:
	.file 1 "ft_isascii.c"
	.loc 1 14 1 view -0
	.cfi_startproc
	.loc 1 14 1 is_stmt 0 view .LVU1
	endbr64	
	pushq	%rbp	#
	.cfi_def_cfa_offset 16
	.cfi_offset 6, -16
	movq	%rsp, %rbp	#,
	.cfi_def_cfa_register 6
1:	call	*mcount@GOTPCREL(%rip)
# ft_isascii.c:14: {
	.loc 1 14 1 view .LVU2
	.loc 1 15 2 is_stmt 1 view .LVU3
# ft_isascii.c:18: }
	.loc 1 18 1 is_stmt 0 view .LVU4
	xorl	%eax, %eax	#
	cmpl	$127, %edi	#, tmp89
	popq	%rbp	#
	.cfi_def_cfa 7, 8
	setbe	%al	#,
	ret	
	.cfi_endproc
.LFE0:
	.size	ft_isascii, .-ft_isascii
.Letext0:
	.section	.note.GNU-stack,"",@progbits
	.section	.note.gnu.property,"a"
	.align 8
	.long	1f - 0f
	.long	4f - 1f
	.long	5
0:
	.string	"GNU"
1:
	.align 8
	.long	0xc0000002
	.long	3f - 2f
2:
	.long	0x3
3:
	.align 8
4:
ft_isprint.o/   0           0     0     644     6841      `
	.file	"ft_isprint.c"
# GNU C17 (Ubuntu 13.2.0-23ubuntu4) version 13.2.0 (x86_64-linux-gnu)
#	compiled by GNU C version 13.2.0, GMP version 6.3.0, MPFR version 4.2.1, MPC version 1.3.1, isl version isl-0.26-GMP

# GGC heuristics: --param ggc-min-expand=100 --param ggc-min-heapsize=131072
# options passed: -march=skylake -mmmx -mpopcnt -msse -msse2 -msse3 -mssse3 -msse4.1 -msse4.2 -mavx -mno-sse4a -mno-fma4 -mno-xop -mfma -mno-avx512f -mbmi -mbmi2 -maes -mpclmul -mno-avx512vl -mno-avx512bw -mno-avx512dq -mno-avx512cd -mno-avx512er -mno-avx512pf -mno-avx512vbmi -mno-avx512ifma -mno-avx5124vnniw -mno-avx5124fmaps -mno-avx512vpopcntdq -mno-avx512vbmi2 -mno-gfni -mno-vpclmulqdq -mno-avx512vnni -mno-avx512bitalg -mno-avx512bf16 -mno-avx512vp2intersect -mno-3dnow -madx -mabm -mno-cldemote -mclflushopt -mno-clwb -mno-clzero -mcx16 -mno-enqcmd -mf16c -mfsgsbase -mfxsr -mhle -msahf -mno-lwp -mlzcnt -mmovbe -mno-movdir64b -mno-movdiri -mno-mwaitx -mno-pconfig -mno-pku -mno-prefetchwt1 -mprfchw -mno-ptwrite -mno-rdpid -mrdrnd -mrdseed -mrtm -mno-serialize -msgx -mno-sha -mno-shstk -mno-tbm -mno-tsxldtrk -mno-vaes -mno-waitpkg -mno-wbnoinvd -mxsave -mxsavec -mxsaveopt -mxsaves -mno-amx-tile -mno-amx-int8 -mno-amx-bf16 -mno-uintr -mno-hreset -mno-kl -mno-widekl -mno-avxvnni -mno-avx512fp16 -mno-avxifma -mno-avxvnniint8 -mno-avxneconvert -mno-cmpccxadd -mno-amx-fp16 -mno-prefetchi -mno-raoint -mno-amx-complex --param=l1-cache-size=32 --param=l1-cache-line-size=64 --param=l2-cache-size=16384 -mtune=skylake -mavx2 -g -Ofast -p -fasynchronous-unwind-tables -fstack-protector-strong -fstack-clash-protection -fcf-protection
	.text
.Ltext0:
	.file 0 "/home/fabi/42/cub3D/libft" "ft_isprint.c"
	.p2align 4
	.globl	ft_isprint
	.type	ft_isprint, @function
ft_isprint:
.LVL0:
.LFB0:
	.file 1 "ft_isprint.c"
	.loc 1 14 1 view -0
	.cfi_startproc
	.loc 1 14 1 is_stmt 0 view .LVU1
	endbr64	
	pushq	%rbp	#
	.cfi_def_cfa_offset 16
	.cfi_offset 6, -16
	movq	%rsp, %rbp	#,
	.cfi_def_cfa_register 6
1:	call	*mcount@GOTPCREL(%rip)
# ft_isprint.c:14: {
	.loc 1 14 1 view .LVU2
	.loc 1 15 2 is_stmt 1 view .LVU3
# ft_isprint.c:18: }
	.loc 1 18 1 is_stmt 0 view .LVU4
	xorl	%eax, %eax	#
# ft_isprint.c:15: 	if (c >= 32 && c <= 126)
	.loc 1 15 14 view .LVU5
	subl	$32, %edi	#, tmp88
.LVL1:
# ft_isprint.c:18: }
	.loc 1 18 1 view .LVU6
	popq	%rbp	#
	.cfi_def_cfa 7, 8
	cmpl	$94, %edi	#, tmp88
	setbe	%al	#,
	ret	
	.cfi_endproc
.LFE0:
	.size	ft_isprint, .-ft_isprint
.Letext0:
	.section	.note.GNU-stack,"",@progbits
	.section	.note.gnu.property,"a"
	.align 8
	.long	1f - 0f
	.long	4f - 1f
	.long	5
0:
	.string	"GNU"
1:
	.align 8
	.long	0xc0000002
	.long	3f - 2f
2:
	.long	0x3
3:
	.align 8
4:

ft_strlen.o/    0           0     0     644     16405     `
	.file	"ft_strlen.c"
# GNU C17 (Ubuntu 13.2.0-23ubuntu4) version 13.2.0 (x86_64-linux-gnu)
#	compiled by GNU C version 13.2.0, GMP version 6.3.0, MPFR version 4.2.1, MPC version 1.3.1, isl version isl-0.26-GMP

# GGC heuristics: --param ggc-min-expand=100 --param ggc-min-heapsize=131072
# options passed: -march=skylake -mmmx -mpopcnt -msse -msse2 -msse3 -mssse3 -msse4.1 -msse4.2 -mavx -mno-sse4a -mno-fma4 -mno-xop -mfma -mno-avx512f -mbmi -mbmi2 -maes -mpclmul -mno-avx512vl -mno-avx512bw -mno-avx512dq -mno-avx512cd -mno-avx512er -mno-avx512pf -mno-avx512vbmi -mno-avx512ifma -mno-avx5124vnniw -mno-avx5124fmaps -mno-avx512vpopcntdq -mno-avx512vbmi2 -mno-gfni -mno-vpclmulqdq -mno-avx512vnni -mno-avx512bitalg -mno-avx512bf16 -mno-avx512vp2intersect -mno-3dnow -madx -mabm -mno-cldemote -mclflushopt -mno-clwb -mno-clzero -mcx16 -mno-enqcmd -mf16c -mfsgsbase -mfxsr -mhle -msahf -mno-lwp -mlzcnt -mmovbe -mno-movdir64b -mno-movdiri -mno-mwaitx -mno-pconfig -mno-pku -mno-prefetchwt1 -mprfchw -mno-ptwrite -mno-rdpid -mrdrnd -mrdseed -mrtm -mno-serialize -msgx -mno-sha -mno-shstk -mno-tbm -mno-tsxldtrk -mno-vaes -mno-waitpkg -mno-wbnoinvd -mxsave -mxsavec -mxsaveopt -mxsaves -mno-amx-tile -mno-amx-int8 -mno-amx-bf16 -mno-uintr -mno-hreset -mno-kl -mno-widekl -mno-avxvnni -mno-avx512fp16 -mno-avxifma -mno-avxvnniint8 -mno-avxneconvert -mno-cmpccxadd -mno-amx-fp16 -mno-prefetchi -mno-raoint -mno-amx-complex --param=l1-cache-size=32 --param=l1-cache-line-size=64 --param=l2-cache-size=16384 -mtune=skylake -mavx2 -g -Ofast -p -fasynchronous-unwind-tables -fstack-protector-strong -fstack-clash-protection -fcf-protection
	.text
.Ltext0:
	.file 0 "/home/fabi/42/cub3D/libft" "ft_strlen.c"
	.p2align 4
	.globl	ft_strlen
	.type	ft_strlen, @function
ft_strlen:
.LVL0:
.LFB51:
	.file 1 "ft_strlen.c"
	.loc 1 16 1 view -0
	.cfi_startproc
	.loc 1 16 1 is_stmt 0 view .LVU1
	endbr64	
	pushq	%rbp	#
	.cfi_def_cfa_offset 16
	.cfi_offset 6, -16
	movq	%rsp, %rbp	#,
	.cfi_def_cfa_register 6
1:	call	*mcount@GOTPCREL(%rip)
# ft_strlen.c:16: {
	.loc 1 16 1 view .LVU2
	.loc 1 17 2 is_stmt 1 view .LVU3
	.loc 1 19 2 view .LVU4
# ft_strlen.c:19: 	if (!s)
	.loc 1 19 5 is_stmt 0 view .LVU5
	testq	%rdi, %rdi	# s
	je	.L4	#,
.LVL1:
	.loc 1 22 9 is_stmt 1 view .LVU6
	cmpb	$0, (%rdi)	#, *s_5(D)
	je	.L4	#,
# ft_strlen.c:22: 	while (s[i])
	.loc 1 22 10 is_stmt 0 view .LVU7
	incq	%rdi	# tmp88
.LVL2:
	.loc 1 22 10 view .LVU8
	call	strlen@PLT	#
.LVL3:
# ft_strlen.c:25: }
	.loc 1 25 1 view .LVU9
	popq	%rbp	#
	.cfi_remember_state
	.cfi_def_cfa 7, 8
	incq	%rax	# <retval>
.LVL4:
	.loc 1 25 1 view .LVU10
	ret	
.LVL5:
	.p2align 4,,10
	.p2align 3
.L4:
	.cfi_restore_state
# ft_strlen.c:20: 		return (0);
	.loc 1 20 10 view .LVU11
	xorl	%eax, %eax	# <retval>
# ft_strlen.c:25: }
	.loc 1 25 1 view .LVU12
	popq	%rbp	#
	.cfi_def_cfa 7, 8
	ret	
	.cfi_endproc
.LFE51:
	.size	ft_strlen, .-ft_strlen
	.p2align 4
	.globl	ft_strnlen
	.type	ft_strnlen, @function
ft_strnlen:
.LVL6:
.LFB52:
	.loc 1 28 1 is_stmt 1 view -0
	.cfi_startproc
	.loc 1 28 1 is_stmt 0 view .LVU14
	endbr64	
	pushq	%rbp	#
	.cfi_def_cfa_offset 16
	.cfi_offset 6, -16
	movq	%rsp, %rbp	#,
	.cfi_def_cfa_register 6
1:	call	*mcount@GOTPCREL(%rip)
# ft_strlen.c:28: {
	.loc 1 28 1 view .LVU15
	.loc 1 29 2 is_stmt 1 view .LVU16
	.loc 1 31 2 view .LVU17
# ft_strlen.c:32: 		return (0);
	.loc 1 32 10 is_stmt 0 view .LVU18
	xorl	%eax, %eax	# <retval>
# ft_strlen.c:31: 	if (!s)
	.loc 1 31 5 view .LVU19
	testq	%rdi, %rdi	# s
	je	.L6	#,
.LVL7:
	.loc 1 34 14 is_stmt 1 view .LVU20
# ft_strlen.c:34: 	while (s[i] && i < max)
	.loc 1 34 14 is_stmt 0 discriminator 1 view .LVU21
	cmpb	$0, (%rdi)	#, *s_5(D)
	je	.L6	#,
	testq	%rsi, %rsi	# max
	jne	.L8	#,
	jmp	.L6	#
.LVL8:
	.p2align 4,,10
	.p2align 3
.L22:
	.loc 1 34 14 discriminator 1 view .LVU22
	cmpq	%rsi, %rax	# max, <retval>
	jnb	.L6	#,
.LVL9:
.L8:
	.loc 1 35 3 is_stmt 1 view .LVU23
# ft_strlen.c:35: 		i++;
	.loc 1 35 4 is_stmt 0 view .LVU24
	incq	%rax	# <retval>
.LVL10:
	.loc 1 34 14 is_stmt 1 view .LVU25
# ft_strlen.c:34: 	while (s[i] && i < max)
	.loc 1 34 14 is_stmt 0 discriminator 1 view .LVU26
	cmpb	$0, (%rdi,%rax)	#, MEM[(const char *)s_5(D) + i_8 * 1]
	jne	.L22	#,
.LVL11:
.L6:
# ft_strlen.c:37: }
	.loc 1 37 1 view .LVU27
	popq	%rbp	#
	.cfi_def_cfa 7, 8
	ret	
	.cfi_endproc
.LFE52:
	.size	ft_strnlen, .-ft_strnlen
	.p2align 4
	.globl	ft_strlen_char
	.type	ft_strlen_char, @function
ft_strlen_char:
.LVL12:
.LFB53:
	.loc 1 42 1 is_stmt 1 view -0
	.cfi_startproc
	.loc 1 42 1 is_stmt 0 view .LVU29
	endbr64	
	pushq	%rbp	#
	.cfi_def_cfa_offset 16
	.cfi_offset 6, -16
	movq	%rsp, %rbp	#,
	.cfi_def_cfa_register 6
1:	call	*mcount@GOTPCREL(%rip)
# ft_strlen.c:42: {
	.loc 1 42 1 view .LVU30
	.loc 1 43 2 is_stmt 1 view .LVU31
	.loc 1 45 2 view .LVU32
# ft_strlen.c:42: {
	.loc 1 42 1 is_stmt 0 view .LVU33
	movl	%esi, %ecx	# additional_terminator, additional_terminator
# ft_strlen.c:45: 	if (!s)
	.loc 1 45 5 view .LVU34
	testq	%rdi, %rdi	# s
	je	.L28	#,
.LVL13:
	.loc 1 48 14 is_stmt 1 view .LVU35
# ft_strlen.c:48: 	while (s[i] && s[i] != additional_terminator)
	.loc 1 48 10 is_stmt 0 view .LVU36
	movzbl	(%rdi), %eax	# *s_5(D), _14
# ft_strlen.c:48: 	while (s[i] && s[i] != additional_terminator)
	.loc 1 48 14 discriminator 1 view .LVU37
	cmpb	%sil, %al	# additional_terminator, _14
	je	.L28	#,
	testb	%al, %al	# _14
	je	.L28	#,
# ft_strlen.c:47: 	i = 0;
	.loc 1 47 4 view .LVU38
	xorl	%eax, %eax	# <retval>
	jmp	.L25	#
.LVL14:
	.p2align 4,,10
	.p2align 3
.L39:
# ft_strlen.c:48: 	while (s[i] && s[i] != additional_terminator)
	.loc 1 48 14 discriminator 1 view .LVU39
	testb	%dl, %dl	# _2
	je	.L23	#,
.LVL15:
.L25:
	.loc 1 49 3 is_stmt 1 view .LVU40
# ft_strlen.c:49: 		i++;
	.loc 1 49 4 is_stmt 0 view .LVU41
	incq	%rax	# <retval>
.LVL16:
	.loc 1 48 14 is_stmt 1 view .LVU42
# ft_strlen.c:48: 	while (s[i] && s[i] != additional_terminator)
	.loc 1 48 10 is_stmt 0 view .LVU43
	movzbl	(%rdi,%rax), %edx	# MEM[(const char *)s_5(D) + i_8 * 1], _2
# ft_strlen.c:48: 	while (s[i] && s[i] != additional_terminator)
	.loc 1 48 14 discriminator 1 view .LVU44
	cmpb	%cl, %dl	# additional_terminator, _2
	jne	.L39	#,
.L23:
# ft_strlen.c:51: }
	.loc 1 51 1 view .LVU45
	popq	%rbp	#
	.cfi_remember_state
	.cfi_def_cfa 7, 8
	ret	
.LVL17:
	.p2align 4,,10
	.p2align 3
.L28:
	.cfi_restore_state
# ft_strlen.c:46: 		return (0);
	.loc 1 46 10 view .LVU46
	xorl	%eax, %eax	# <retval>
# ft_strlen.c:51: }
	.loc 1 51 1 view .LVU47
	popq	%rbp	#
	.cfi_def_cfa 7, 8
	ret	
	.cfi_endproc
.LFE53:
	.size	ft_strlen_char, .-ft_strlen_char
.Letext0:
	.file 2 "/usr/lib/gcc/x86_64-linux-gnu/13/include/stddef.h"
	.file 3 "<built-in>"
	.section	.note.GNU-stack,"",@progbits
	.section	.note.gnu.property,"a"
	.align 8
	.long	1f - 0f
	.long	4f - 1f
	.long	5
0:
	.string	"GNU"
1:
	.align 8
	.long	0xc0000002
	.long	3f - 2f
2:
	.long	0x3
3:
	.align 8
4:

ft_memset.o/    0           0     0     644     11865     `
	.file	"ft_memset.c"
# GNU C17 (Ubuntu 13.2.0-23ubuntu4) version 13.2.0 (x86_64-linux-gnu)
#	compiled by GNU C version 13.2.0, GMP version 6.3.0, MPFR version 4.2.1, MPC version 1.3.1, isl version isl-0.26-GMP

# GGC heuristics: --param ggc-min-expand=100 --param ggc-min-heapsize=131072
# options passed: -march=skylake -mmmx -mpopcnt -msse -msse2 -msse3 -mssse3 -msse4.1 -msse4.2 -mavx -mno-sse4a -mno-fma4 -mno-xop -mfma -mno-avx512f -mbmi -mbmi2 -maes -mpclmul -mno-avx512vl -mno-avx512bw -mno-avx512dq -mno-avx512cd -mno-avx512er -mno-avx512pf -mno-avx512vbmi -mno-avx512ifma -mno-avx5124vnniw -mno-avx5124fmaps -mno-avx512vpopcntdq -mno-avx512vbmi2 -mno-gfni -mno-vpclmulqdq -mno-avx512vnni -mno-avx512bitalg -mno-avx512bf16 -mno-avx512vp2intersect -mno-3dnow -madx -mabm -mno-cldemote -mclflushopt -mno-clwb -mno-clzero -mcx16 -mno-enqcmd -mf16c -mfsgsbase -mfxsr -mhle -msahf -mno-lwp -mlzcnt -mmovbe -mno-movdir64b -mno-movdiri -mno-mwaitx -mno-pconfig -mno-pku -mno-prefetchwt1 -mprfchw -mno-ptwrite -mno-rdpid -mrdrnd -mrdseed -mrtm -mno-serialize -msgx -mno-sha -mno-shstk -mno-tbm -mno-tsxldtrk -mno-vaes -mno-waitpkg -mno-wbnoinvd -mxsave -mxsavec -mxsaveopt -mxsaves -mno-amx-tile -mno-amx-int8 -mno-amx-bf16 -mno-uintr -mno-hreset -mno-kl -mno-widekl -mno-avxvnni -mno-avx512fp16 -mno-avxifma -mno-avxvnniint8 -mno-avxneconvert -mno-cmpccxadd -mno-amx-fp16 -mno-prefetchi -mno-raoint -mno-amx-complex --param=l1-cache-size=32 --param=l1-cache-line-size=64 --param=l2-cache-size=16384 -mtune=skylake -mavx2 -g -Ofast -p -fasynchronous-unwind-tables -fstack-protector-strong -fstack-clash-protection -fcf-protection
	.text
.Ltext0:
	.file 0 "/home/fabi/42/cub3D/libft" "ft_memset.c"
	.p2align 4
	.globl	ft_memset
	.type	ft_memset, @function
ft_memset:
.LVL0:
.LFB51:
	.file 1 "ft_memset.c"
	.loc 1 16 1 view -0
	.cfi_startproc
	.loc 1 16 1 is_stmt 0 view .LVU1
	endbr64	
	pushq	%rbp	#
	.cfi_def_cfa_offset 16
	.cfi_offset 6, -16
	movq	%rsp, %rbp	#,
	.cfi_def_cfa_register 6
1:	call	*mcount@GOTPCREL(%rip)
# ft_memset.c:16: {
	.loc 1 16 1 view .LVU2
	.loc 1 17 2 is_stmt 1 view .LVU3
	.loc 1 18 2 view .LVU4
	.loc 1 20 2 view .LVU5
.LVL1:
	.loc 1 21 2 view .LVU6
	.loc 1 22 2 view .LVU7
	.loc 1 22 9 view .LVU8
	testq	%rdx, %rdx	# len
	je	.L2	#,
# ft_memset.c:23: 		bytes[len-- - 1] = val;
	.loc 1 23 20 is_stmt 0 view .LVU9
	movzbl	%sil, %esi	# c,
.LVL2:
	.loc 1 23 20 view .LVU10
	call	memset@PLT	#
.LVL3:
	.loc 1 23 20 view .LVU11
	movq	%rax, %rdi	#, b
.LVL4:
.L2:
	.loc 1 24 2 is_stmt 1 view .LVU12
# ft_memset.c:25: }
	.loc 1 25 1 is_stmt 0 view .LVU13
	movq	%rdi, %rax	# b,
	popq	%rbp	#
	.cfi_def_cfa 7, 8
	ret	
	.cfi_endproc
.LFE51:
	.size	ft_memset, .-ft_memset
.Letext0:
	.file 2 "/usr/lib/gcc/x86_64-linux-gnu/13/include/stddef.h"
	.file 3 "<built-in>"
	.section	.note.GNU-stack,"",@progbits
	.section	.note.gnu.property,"a"
	.align 8
	.long	1f - 0f
	.long	4f - 1f
	.long	5
0:
	.string	"GNU"
1:
	.align 8
	.long	0xc0000002
	.long	3f - 2f
2:
	.long	0x3
3:
	.align 8
4:

ft_bzero.o/     0           0     0     644     11297     `
	.file	"ft_bzero.c"
# GNU C17 (Ubuntu 13.2.0-23ubuntu4) version 13.2.0 (x86_64-linux-gnu)
#	compiled by GNU C version 13.2.0, GMP version 6.3.0, MPFR version 4.2.1, MPC version 1.3.1, isl version isl-0.26-GMP

# GGC heuristics: --param ggc-min-expand=100 --param ggc-min-heapsize=131072
# options passed: -march=skylake -mmmx -mpopcnt -msse -msse2 -msse3 -mssse3 -msse4.1 -msse4.2 -mavx -mno-sse4a -mno-fma4 -mno-xop -mfma -mno-avx512f -mbmi -mbmi2 -maes -mpclmul -mno-avx512vl -mno-avx512bw -mno-avx512dq -mno-avx512cd -mno-avx512er -mno-avx512pf -mno-avx512vbmi -mno-avx512ifma -mno-avx5124vnniw -mno-avx5124fmaps -mno-avx512vpopcntdq -mno-avx512vbmi2 -mno-gfni -mno-vpclmulqdq -mno-avx512vnni -mno-avx512bitalg -mno-avx512bf16 -mno-avx512vp2intersect -mno-3dnow -madx -mabm -mno-cldemote -mclflushopt -mno-clwb -mno-clzero -mcx16 -mno-enqcmd -mf16c -mfsgsbase -mfxsr -mhle -msahf -mno-lwp -mlzcnt -mmovbe -mno-movdir64b -mno-movdiri -mno-mwaitx -mno-pconfig -mno-pku -mno-prefetchwt1 -mprfchw -mno-ptwrite -mno-rdpid -mrdrnd -mrdseed -mrtm -mno-serialize -msgx -mno-sha -mno-shstk -mno-tbm -mno-tsxldtrk -mno-vaes -mno-waitpkg -mno-wbnoinvd -mxsave -mxsavec -mxsaveopt -mxsaves -mno-amx-tile -mno-amx-int8 -mno-amx-bf16 -mno-uintr -mno-hreset -mno-kl -mno-widekl -mno-avxvnni -mno-avx512fp16 -mno-avxifma -mno-avxvnniint8 -mno-avxneconvert -mno-cmpccxadd -mno-amx-fp16 -mno-prefetchi -mno-raoint -mno-amx-complex --param=l1-cache-size=32 --param=l1-cache-line-size=64 --param=l2-cache-size=16384 -mtune=skylake -mavx2 -g -Ofast -p -fasynchronous-unwind-tables -fstack-protector-strong -fstack-clash-protection -fcf-protection
	.text
.Ltext0:
	.file 0 "/home/fabi/42/cub3D/libft" "ft_bzero.c"
	.p2align 4
	.globl	ft_bzero
	.type	ft_bzero, @function
ft_bzero:
.LVL0:
.LFB51:
	.file 1 "ft_bzero.c"
	.loc 1 16 1 view -0
	.cfi_startproc
	.loc 1 16 1 is_stmt 0 view .LVU1
	endbr64	
	pushq	%rbp	#
	.cfi_def_cfa_offset 16
	.cfi_offset 6, -16
	movq	%rsp, %rbp	#,
	.cfi_def_cfa_register 6
1:	call	*mcount@GOTPCREL(%rip)
# ft_bzero.c:16: {
	.loc 1 16 1 view .LVU2
	.loc 1 17 2 is_stmt 1 view .LVU3
	.loc 1 19 2 view .LVU4
.LVL1:
	.loc 1 20 2 view .LVU5
	.loc 1 20 9 view .LVU6
# ft_bzero.c:16: {
	.loc 1 16 1 is_stmt 0 view .LVU7
	movq	%rsi, %rdx	# tmp89, n
# ft_bzero.c:20: 	while (n)
	.loc 1 20 9 view .LVU8
	testq	%rsi, %rsi	# n
	je	.L3	#,
# ft_bzero.c:22: 		*(str++) = 0;
	.loc 1 22 12 view .LVU9
	xorl	%esi, %esi	#
.LVL2:
# ft_bzero.c:25: }
	.loc 1 25 1 view .LVU10
	popq	%rbp	#
	.cfi_remember_state
	.cfi_def_cfa 7, 8
# ft_bzero.c:22: 		*(str++) = 0;
	.loc 1 22 12 view .LVU11
	jmp	memset@PLT	#
.LVL3:
	.p2align 4,,10
	.p2align 3
.L3:
	.cfi_restore_state
# ft_bzero.c:25: }
	.loc 1 25 1 view .LVU12
	popq	%rbp	#
	.cfi_def_cfa 7, 8
	ret	
	.cfi_endproc
.LFE51:
	.size	ft_bzero, .-ft_bzero
.Letext0:
	.file 2 "/usr/lib/gcc/x86_64-linux-gnu/13/include/stddef.h"
	.file 3 "<built-in>"
	.section	.note.GNU-stack,"",@progbits
	.section	.note.gnu.property,"a"
	.align 8
	.long	1f - 0f
	.long	4f - 1f
	.long	5
0:
	.string	"GNU"
1:
	.align 8
	.long	0xc0000002
	.long	3f - 2f
2:
	.long	0x3
3:
	.align 8
4:

ft_memcpy.o/    0           0     0     644     40215     `
	.file	"ft_memcpy.c"
# GNU C17 (Ubuntu 13.2.0-23ubuntu4) version 13.2.0 (x86_64-linux-gnu)
#	compiled by GNU C version 13.2.0, GMP version 6.3.0, MPFR version 4.2.1, MPC version 1.3.1, isl version isl-0.26-GMP

# GGC heuristics: --param ggc-min-expand=100 --param ggc-min-heapsize=131072
# options passed: -march=skylake -mmmx -mpopcnt -msse -msse2 -msse3 -mssse3 -msse4.1 -msse4.2 -mavx -mno-sse4a -mno-fma4 -mno-xop -mfma -mno-avx512f -mbmi -mbmi2 -maes -mpclmul -mno-avx512vl -mno-avx512bw -mno-avx512dq -mno-avx512cd -mno-avx512er -mno-avx512pf -mno-avx512vbmi -mno-avx512ifma -mno-avx5124vnniw -mno-avx5124fmaps -mno-avx512vpopcntdq -mno-avx512vbmi2 -mno-gfni -mno-vpclmulqdq -mno-avx512vnni -mno-avx512bitalg -mno-avx512bf16 -mno-avx512vp2intersect -mno-3dnow -madx -mabm -mno-cldemote -mclflushopt -mno-clwb -mno-clzero -mcx16 -mno-enqcmd -mf16c -mfsgsbase -mfxsr -mhle -msahf -mno-lwp -mlzcnt -mmovbe -mno-movdir64b -mno-movdiri -mno-mwaitx -mno-pconfig -mno-pku -mno-prefetchwt1 -mprfchw -mno-ptwrite -mno-rdpid -mrdrnd -mrdseed -mrtm -mno-serialize -msgx -mno-sha -mno-shstk -mno-tbm -mno-tsxldtrk -mno-vaes -mno-waitpkg -mno-wbnoinvd -mxsave -mxsavec -mxsaveopt -mxsaves -mno-amx-tile -mno-amx-int8 -mno-amx-bf16 -mno-uintr -mno-hreset -mno-kl -mno-widekl -mno-avxvnni -mno-avx512fp16 -mno-avxifma -mno-avxvnniint8 -mno-avxneconvert -mno-cmpccxadd -mno-amx-fp16 -mno-prefetchi -mno-raoint -mno-amx-complex --param=l1-cache-size=32 --param=l1-cache-line-size=64 --param=l2-cache-size=16384 -mtune=skylake -mavx2 -g -Ofast -p -fasynchronous-unwind-tables -fstack-protector-strong -fstack-clash-protection -fcf-protection
	.text
.Ltext0:
	.file 0 "/home/fabi/42/cub3D/libft" "ft_memcpy.c"
	.p2align 4
	.globl	ft_memcpy
	.type	ft_memcpy, @function
ft_memcpy:
.LVL0:
.LFB51:
	.file 1 "ft_memcpy.c"
	.loc 1 16 1 view -0
	.cfi_startproc
	.loc 1 16 1 is_stmt 0 view .LVU1
	endbr64	
	pushq	%rbp	#
	.cfi_def_cfa_offset 16
	.cfi_offset 6, -16
	movq	%rsp, %rbp	#,
	.cfi_def_cfa_register 6
	andq	$-32, %rsp	#,
1:	call	*mcount@GOTPCREL(%rip)
# ft_memcpy.c:16: {
	.loc 1 16 1 view .LVU2
	.loc 1 17 2 is_stmt 1 view .LVU3
	.loc 1 18 2 view .LVU4
	.loc 1 20 2 view .LVU5
# ft_memcpy.c:16: {
	.loc 1 16 1 is_stmt 0 view .LVU6
	movq	%rdi, %rcx	# tmp127, dst
# ft_memcpy.c:20: 	if (!dst)
	.loc 1 20 5 view .LVU7
	testq	%rdi, %rdi	# dst
	je	.L2	#,
	.loc 1 22 2 is_stmt 1 view .LVU8
# ft_memcpy.c:22: 	if (!src)
	.loc 1 22 5 is_stmt 0 view .LVU9
	testq	%rsi, %rsi	# src
	je	.L2	#,
.LVL1:
	.loc 1 28 9 is_stmt 1 view .LVU10
# ft_memcpy.c:28: 	while (n--)
	.loc 1 28 10 is_stmt 0 view .LVU11
	leaq	-1(%rdx), %rdi	#, tmp.24
.LVL2:
# ft_memcpy.c:28: 	while (n--)
	.loc 1 28 9 view .LVU12
	testq	%rdx, %rdx	# n
	je	.L2	#,
	cmpq	$14, %rdi	#, tmp.24
	jbe	.L14	#,
	leaq	1(%rsi), %rax	#, tmp119
	movq	%rcx, %r8	# dst, tmp120
	subq	%rax, %r8	# tmp119, tmp120
	xorl	%eax, %eax	# ivtmp.34
	cmpq	$30, %r8	#, tmp120
	ja	.L73	#,
.LVL3:
	.p2align 4,,10
	.p2align 3
.L12:
	.loc 1 29 3 is_stmt 1 view .LVU13
# ft_memcpy.c:29: 		*d++ = *s++;
	.loc 1 29 10 is_stmt 0 view .LVU14
	movzbl	(%rsi,%rax), %edi	# MEM[(const char *)src_9(D) + ivtmp.34_18 * 1], _32
# ft_memcpy.c:29: 		*d++ = *s++;
	.loc 1 29 8 view .LVU15
	movb	%dil, (%rcx,%rax)	# _32, MEM[(char *)dst_8(D) + ivtmp.34_18 * 1]
	.loc 1 28 9 is_stmt 1 view .LVU16
.LVL4:
	.loc 1 28 9 is_stmt 0 view .LVU17
	incq	%rax	# ivtmp.34
.LVL5:
	.loc 1 28 9 view .LVU18
	cmpq	%rax, %rdx	# ivtmp.34, n
	jne	.L12	#,
.LVL6:
.L2:
# ft_memcpy.c:31: }
	.loc 1 31 1 view .LVU19
	leave	
	.cfi_remember_state
	.cfi_def_cfa 7, 8
	movq	%rcx, %rax	# dst,
	ret	
.LVL7:
	.p2align 4,,10
	.p2align 3
.L73:
	.cfi_restore_state
	.loc 1 31 1 view .LVU20
	cmpq	$30, %rdi	#, tmp.24
	jbe	.L16	#,
	movq	%rdx, %r8	# n, _65
	andq	$-32, %r8	#, _65
.LVL8:
	.p2align 4,,10
	.p2align 3
.L7:
	.loc 1 29 3 is_stmt 1 view .LVU21
# ft_memcpy.c:29: 		*d++ = *s++;
	.loc 1 29 8 is_stmt 0 view .LVU22
	vmovdqu	(%rsi,%rax), %ymm0	# MEM <const vector(32) char> [(const char *)src_9(D) + ivtmp.47_97 * 1], tmp133
	vmovdqu	%ymm0, (%rcx,%rax)	# tmp133, MEM <vector(32) char> [(char *)dst_8(D) + ivtmp.47_97 * 1]
	.loc 1 28 9 is_stmt 1 view .LVU23
	addq	$32, %rax	#, ivtmp.47
	cmpq	%rax, %r8	# ivtmp.47, _65
	jne	.L7	#,
	leaq	(%rcx,%r8), %rax	#, tmp.22
	leaq	(%rsi,%r8), %r9	#, tmp.23
	subq	%r8, %rdi	# _65, tmp.24
	cmpq	%r8, %rdx	# _65, n
	je	.L70	#,
	subq	%r8, %rdx	# _65, n
	leaq	-1(%rdx), %r10	#, tmp123
	cmpq	$14, %r10	#, tmp123
	jbe	.L74	#,
	vzeroupper
.LVL9:
.L6:
	.loc 1 29 3 view .LVU24
	.loc 1 28 9 view .LVU25
# ft_memcpy.c:29: 		*d++ = *s++;
	.loc 1 29 10 is_stmt 0 view .LVU26
	vmovdqu	(%rsi,%r8), %xmm1	# MEM <const vector(16) char> [(const char *)vectp_src.26_91], tmp134
	movq	%rdx, %rsi	# n, niters_vector_mult_vf.21
.LVL10:
	.loc 1 29 10 view .LVU27
	andq	$-16, %rsi	#, niters_vector_mult_vf.21
	addq	%rsi, %rax	# niters_vector_mult_vf.21, tmp.22
	addq	%rsi, %r9	# niters_vector_mult_vf.21, tmp.23
	subq	%rsi, %rdi	# niters_vector_mult_vf.21, tmp.24
	andl	$15, %edx	#, n
	vmovdqu	%xmm1, (%rcx,%r8)	# tmp134, MEM <vector(16) char> [(char *)vectp_dst.29_95]
	je	.L2	#,
.LVL11:
.L10:
	.loc 1 29 3 is_stmt 1 view .LVU28
# ft_memcpy.c:29: 		*d++ = *s++;
	.loc 1 29 10 is_stmt 0 view .LVU29
	movzbl	(%r9), %edx	# *s_82, _13
# ft_memcpy.c:29: 		*d++ = *s++;
	.loc 1 29 8 view .LVU30
	movb	%dl, (%rax)	# _13, *d_81
	.loc 1 28 9 is_stmt 1 view .LVU31
.LVL12:
	.loc 1 28 9 is_stmt 0 view .LVU32
	testq	%rdi, %rdi	# tmp.24
	je	.L2	#,
	.loc 1 29 3 is_stmt 1 view .LVU33
.LVL13:
# ft_memcpy.c:29: 		*d++ = *s++;
	.loc 1 29 10 is_stmt 0 view .LVU34
	movzbl	1(%r9), %edx	# MEM[(const char *)s_82 + 1B], _35
# ft_memcpy.c:29: 		*d++ = *s++;
	.loc 1 29 8 view .LVU35
	movb	%dl, 1(%rax)	# _35, MEM[(char *)d_81 + 1B]
	.loc 1 28 9 is_stmt 1 view .LVU36
.LVL14:
	.loc 1 28 9 is_stmt 0 view .LVU37
	cmpq	$1, %rdi	#, tmp.24
	je	.L2	#,
	.loc 1 29 3 is_stmt 1 view .LVU38
.LVL15:
# ft_memcpy.c:29: 		*d++ = *s++;
	.loc 1 29 10 is_stmt 0 view .LVU39
	movzbl	2(%r9), %edx	# MEM[(const char *)s_82 + 2B], _107
# ft_memcpy.c:29: 		*d++ = *s++;
	.loc 1 29 8 view .LVU40
	movb	%dl, 2(%rax)	# _107, MEM[(char *)d_81 + 2B]
	.loc 1 28 9 is_stmt 1 view .LVU41
.LVL16:
	.loc 1 28 9 is_stmt 0 view .LVU42
	cmpq	$2, %rdi	#, tmp.24
	je	.L2	#,
	.loc 1 29 3 is_stmt 1 view .LVU43
.LVL17:
# ft_memcpy.c:29: 		*d++ = *s++;
	.loc 1 29 10 is_stmt 0 view .LVU44
	movzbl	3(%r9), %edx	# MEM[(const char *)s_82 + 3B], _116
# ft_memcpy.c:29: 		*d++ = *s++;
	.loc 1 29 8 view .LVU45
	movb	%dl, 3(%rax)	# _116, MEM[(char *)d_81 + 3B]
	.loc 1 28 9 is_stmt 1 view .LVU46
.LVL18:
	.loc 1 28 9 is_stmt 0 view .LVU47
	cmpq	$3, %rdi	#, tmp.24
	je	.L2	#,
	.loc 1 29 3 is_stmt 1 view .LVU48
.LVL19:
# ft_memcpy.c:29: 		*d++ = *s++;
	.loc 1 29 10 is_stmt 0 view .LVU49
	movzbl	4(%r9), %edx	# MEM[(const char *)s_82 + 4B], _125
# ft_memcpy.c:29: 		*d++ = *s++;
	.loc 1 29 8 view .LVU50
	movb	%dl, 4(%rax)	# _125, MEM[(char *)d_81 + 4B]
	.loc 1 28 9 is_stmt 1 view .LVU51
.LVL20:
	.loc 1 28 9 is_stmt 0 view .LVU52
	cmpq	$4, %rdi	#, tmp.24
	je	.L2	#,
	.loc 1 29 3 is_stmt 1 view .LVU53
.LVL21:
# ft_memcpy.c:29: 		*d++ = *s++;
	.loc 1 29 10 is_stmt 0 view .LVU54
	movzbl	5(%r9), %edx	# MEM[(const char *)s_82 + 5B], _134
# ft_memcpy.c:29: 		*d++ = *s++;
	.loc 1 29 8 view .LVU55
	movb	%dl, 5(%rax)	# _134, MEM[(char *)d_81 + 5B]
	.loc 1 28 9 is_stmt 1 view .LVU56
.LVL22:
	.loc 1 28 9 is_stmt 0 view .LVU57
	cmpq	$5, %rdi	#, tmp.24
	je	.L2	#,
	.loc 1 29 3 is_stmt 1 view .LVU58
.LVL23:
# ft_memcpy.c:29: 		*d++ = *s++;
	.loc 1 29 10 is_stmt 0 view .LVU59
	movzbl	6(%r9), %edx	# MEM[(const char *)s_82 + 6B], _143
# ft_memcpy.c:29: 		*d++ = *s++;
	.loc 1 29 8 view .LVU60
	movb	%dl, 6(%rax)	# _143, MEM[(char *)d_81 + 6B]
	.loc 1 28 9 is_stmt 1 view .LVU61
.LVL24:
	.loc 1 28 9 is_stmt 0 view .LVU62
	cmpq	$6, %rdi	#, tmp.24
	je	.L2	#,
	.loc 1 29 3 is_stmt 1 view .LVU63
.LVL25:
# ft_memcpy.c:29: 		*d++ = *s++;
	.loc 1 29 10 is_stmt 0 view .LVU64
	movzbl	7(%r9), %edx	# MEM[(const char *)s_82 + 7B], _152
# ft_memcpy.c:29: 		*d++ = *s++;
	.loc 1 29 8 view .LVU65
	movb	%dl, 7(%rax)	# _152, MEM[(char *)d_81 + 7B]
	.loc 1 28 9 is_stmt 1 view .LVU66
.LVL26:
	.loc 1 28 9 is_stmt 0 view .LVU67
	cmpq	$7, %rdi	#, tmp.24
	je	.L2	#,
	.loc 1 29 3 is_stmt 1 view .LVU68
.LVL27:
# ft_memcpy.c:29: 		*d++ = *s++;
	.loc 1 29 10 is_stmt 0 view .LVU69
	movzbl	8(%r9), %edx	# MEM[(const char *)s_82 + 8B], _161
# ft_memcpy.c:29: 		*d++ = *s++;
	.loc 1 29 8 view .LVU70
	movb	%dl, 8(%rax)	# _161, MEM[(char *)d_81 + 8B]
	.loc 1 28 9 is_stmt 1 view .LVU71
.LVL28:
	.loc 1 28 9 is_stmt 0 view .LVU72
	cmpq	$8, %rdi	#, tmp.24
	je	.L2	#,
	.loc 1 29 3 is_stmt 1 view .LVU73
.LVL29:
# ft_memcpy.c:29: 		*d++ = *s++;
	.loc 1 29 10 is_stmt 0 view .LVU74
	movzbl	9(%r9), %edx	# MEM[(const char *)s_82 + 9B], _170
# ft_memcpy.c:29: 		*d++ = *s++;
	.loc 1 29 8 view .LVU75
	movb	%dl, 9(%rax)	# _170, MEM[(char *)d_81 + 9B]
	.loc 1 28 9 is_stmt 1 view .LVU76
.LVL30:
	.loc 1 28 9 is_stmt 0 view .LVU77
	cmpq	$9, %rdi	#, tmp.24
	je	.L2	#,
	.loc 1 29 3 is_stmt 1 view .LVU78
.LVL31:
# ft_memcpy.c:29: 		*d++ = *s++;
	.loc 1 29 10 is_stmt 0 view .LVU79
	movzbl	10(%r9), %edx	# MEM[(const char *)s_82 + 10B], _179
# ft_memcpy.c:29: 		*d++ = *s++;
	.loc 1 29 8 view .LVU80
	movb	%dl, 10(%rax)	# _179, MEM[(char *)d_81 + 10B]
	.loc 1 28 9 is_stmt 1 view .LVU81
.LVL32:
	.loc 1 28 9 is_stmt 0 view .LVU82
	cmpq	$10, %rdi	#, tmp.24
	je	.L2	#,
	.loc 1 29 3 is_stmt 1 view .LVU83
.LVL33:
# ft_memcpy.c:29: 		*d++ = *s++;
	.loc 1 29 10 is_stmt 0 view .LVU84
	movzbl	11(%r9), %edx	# MEM[(const char *)s_82 + 11B], _188
# ft_memcpy.c:29: 		*d++ = *s++;
	.loc 1 29 8 view .LVU85
	movb	%dl, 11(%rax)	# _188, MEM[(char *)d_81 + 11B]
	.loc 1 28 9 is_stmt 1 view .LVU86
.LVL34:
	.loc 1 28 9 is_stmt 0 view .LVU87
	cmpq	$11, %rdi	#, tmp.24
	je	.L2	#,
	.loc 1 29 3 is_stmt 1 view .LVU88
.LVL35:
# ft_memcpy.c:29: 		*d++ = *s++;
	.loc 1 29 10 is_stmt 0 view .LVU89
	movzbl	12(%r9), %edx	# MEM[(const char *)s_82 + 12B], _197
# ft_memcpy.c:29: 		*d++ = *s++;
	.loc 1 29 8 view .LVU90
	movb	%dl, 12(%rax)	# _197, MEM[(char *)d_81 + 12B]
	.loc 1 28 9 is_stmt 1 view .LVU91
.LVL36:
	.loc 1 28 9 is_stmt 0 view .LVU92
	cmpq	$12, %rdi	#, tmp.24
	je	.L2	#,
	.loc 1 29 3 is_stmt 1 view .LVU93
.LVL37:
# ft_memcpy.c:29: 		*d++ = *s++;
	.loc 1 29 10 is_stmt 0 view .LVU94
	movzbl	13(%r9), %edx	# MEM[(const char *)s_82 + 13B], _206
# ft_memcpy.c:29: 		*d++ = *s++;
	.loc 1 29 8 view .LVU95
	movb	%dl, 13(%rax)	# _206, MEM[(char *)d_81 + 13B]
	.loc 1 28 9 is_stmt 1 view .LVU96
.LVL38:
	.loc 1 28 9 is_stmt 0 view .LVU97
	cmpq	$13, %rdi	#, tmp.24
	je	.L2	#,
	.loc 1 29 3 is_stmt 1 view .LVU98
.LVL39:
# ft_memcpy.c:29: 		*d++ = *s++;
	.loc 1 29 10 is_stmt 0 view .LVU99
	movzbl	14(%r9), %edx	# MEM[(const char *)s_82 + 14B], _75
# ft_memcpy.c:29: 		*d++ = *s++;
	.loc 1 29 8 view .LVU100
	movb	%dl, 14(%rax)	# _75, MEM[(char *)d_81 + 14B]
	.loc 1 28 9 is_stmt 1 view .LVU101
.LVL40:
	.loc 1 28 9 is_stmt 0 view .LVU102
	jmp	.L2	#
.LVL41:
	.p2align 4,,10
	.p2align 3
.L14:
	.loc 1 28 9 view .LVU103
	xorl	%eax, %eax	# ivtmp.34
.LVL42:
	.loc 1 29 3 is_stmt 1 view .LVU104
# ft_memcpy.c:29: 		*d++ = *s++;
	.loc 1 29 10 is_stmt 0 view .LVU105
	movzbl	(%rsi,%rax), %edi	# MEM[(const char *)src_9(D) + ivtmp.34_18 * 1], _32
# ft_memcpy.c:29: 		*d++ = *s++;
	.loc 1 29 8 view .LVU106
	movb	%dil, (%rcx,%rax)	# _32, MEM[(char *)dst_8(D) + ivtmp.34_18 * 1]
	.loc 1 28 9 is_stmt 1 view .LVU107
.LVL43:
	.loc 1 28 9 is_stmt 0 view .LVU108
	incq	%rax	# ivtmp.34
.LVL44:
	.loc 1 28 9 view .LVU109
	cmpq	%rax, %rdx	# ivtmp.34, n
	jne	.L12	#,
	jmp	.L2	#
.LVL45:
.L16:
	.loc 1 28 9 view .LVU110
	movq	%rsi, %r9	# src, tmp.23
	movq	%rcx, %rax	# dst, tmp.22
	xorl	%r8d, %r8d	# _65
	jmp	.L6	#
.LVL46:
.L74:
	.loc 1 28 9 view .LVU111
	vzeroupper
.LVL47:
	jmp	.L10	#
.L70:
	vzeroupper
.LVL48:
	jmp	.L2	#
	.cfi_endproc
.LFE51:
	.size	ft_memcpy, .-ft_memcpy
	.p2align 4
	.globl	ft_memdup
	.type	ft_memdup, @function
ft_memdup:
.LVL49:
.LFB52:
	.loc 1 34 1 is_stmt 1 view -0
	.cfi_startproc
	.loc 1 34 1 is_stmt 0 view .LVU113
	endbr64	
	pushq	%rbp	#
	.cfi_def_cfa_offset 16
	.cfi_offset 6, -16
	movq	%rsp, %rbp	#,
	.cfi_def_cfa_register 6
	pushq	%r12	#
	pushq	%rbx	#
	.cfi_offset 12, -24
	.cfi_offset 3, -32
1:	call	*mcount@GOTPCREL(%rip)
# ft_memcpy.c:34: {
	.loc 1 34 1 view .LVU114
	.loc 1 35 2 is_stmt 1 view .LVU115
	.loc 1 37 2 view .LVU116
# ft_memcpy.c:34: {
	.loc 1 34 1 is_stmt 0 view .LVU117
	movq	%rdi, %r12	# tmp99, src
# ft_memcpy.c:37: 	new = malloc(size);
	.loc 1 37 8 view .LVU118
	movq	%rsi, %rdi	# size,
.LVL50:
# ft_memcpy.c:34: {
	.loc 1 34 1 view .LVU119
	movq	%rsi, %rbx	# tmp100, size
# ft_memcpy.c:37: 	new = malloc(size);
	.loc 1 37 8 view .LVU120
	call	malloc@PLT	#
.LVL51:
	.loc 1 37 8 view .LVU121
	movq	%rax, %rcx	# tmp101, <retval>
.LVL52:
	.loc 1 38 2 is_stmt 1 view .LVU122
.LBB4:
.LBI4:
	.loc 1 15 7 view .LVU123
.LBB5:
	.loc 1 17 2 view .LVU124
	.loc 1 18 2 view .LVU125
	.loc 1 20 2 view .LVU126
	.loc 1 22 2 view .LVU127
# ft_memcpy.c:22: 	if (!src)
	.loc 1 22 5 is_stmt 0 view .LVU128
	testq	%r12, %r12	# src
	je	.L75	#,
	testq	%rax, %rax	# <retval>
	je	.L75	#,
.LVL53:
	.loc 1 28 9 is_stmt 1 view .LVU129
	.loc 1 28 9 is_stmt 0 view .LVU130
	testq	%rbx, %rbx	# size
	je	.L75	#,
# ft_memcpy.c:29: 		*d++ = *s++;
	.loc 1 29 8 view .LVU131
	movq	%rbx, %rdx	# size,
	movq	%r12, %rsi	# src,
	movq	%rax, %rdi	# <retval>,
	call	memcpy@PLT	#
.LVL54:
	.loc 1 29 8 view .LVU132
	movq	%rax, %rcx	#, <retval>
.LVL55:
	.loc 1 29 8 view .LVU133
.LBE5:
.LBE4:
	.loc 1 39 2 is_stmt 1 view .LVU134
.L75:
# ft_memcpy.c:40: }
	.loc 1 40 1 is_stmt 0 view .LVU135
	popq	%rbx	#
.LVL56:
	.loc 1 40 1 view .LVU136
	movq	%rcx, %rax	# <retval>,
	popq	%r12	#
.LVL57:
	.loc 1 40 1 view .LVU137
	popq	%rbp	#
	.cfi_def_cfa 7, 8
	ret	
	.cfi_endproc
.LFE52:
	.size	ft_memdup, .-ft_memdup
.Letext0:
	.file 2 "/usr/include/stdlib.h"
	.file 3 "/usr/lib/gcc/x86_64-linux-gnu/13/include/stddef.h"
	.file 4 "<built-in>"
	.section	.note.GNU-stack,"",@progbits
	.section	.note.gnu.property,"a"
	.align 8
	.long	1f - 0f
	.long	4f - 1f
	.long	5
0:
	.string	"GNU"
1:
	.align 8
	.long	0xc0000002
	.long	3f - 2f
2:
	.long	0x3
3:
	.align 8
4:

ft_memmove.o/   0           0     0     644     44111     `
	.file	"ft_memmove.c"
# GNU C17 (Ubuntu 13.2.0-23ubuntu4) version 13.2.0 (x86_64-linux-gnu)
#	compiled by GNU C version 13.2.0, GMP version 6.3.0, MPFR version 4.2.1, MPC version 1.3.1, isl version isl-0.26-GMP

# GGC heuristics: --param ggc-min-expand=100 --param ggc-min-heapsize=131072
# options passed: -march=skylake -mmmx -mpopcnt -msse -msse2 -msse3 -mssse3 -msse4.1 -msse4.2 -mavx -mno-sse4a -mno-fma4 -mno-xop -mfma -mno-avx512f -mbmi -mbmi2 -maes -mpclmul -mno-avx512vl -mno-avx512bw -mno-avx512dq -mno-avx512cd -mno-avx512er -mno-avx512pf -mno-avx512vbmi -mno-avx512ifma -mno-avx5124vnniw -mno-avx5124fmaps -mno-avx512vpopcntdq -mno-avx512vbmi2 -mno-gfni -mno-vpclmulqdq -mno-avx512vnni -mno-avx512bitalg -mno-avx512bf16 -mno-avx512vp2intersect -mno-3dnow -madx -mabm -mno-cldemote -mclflushopt -mno-clwb -mno-clzero -mcx16 -mno-enqcmd -mf16c -mfsgsbase -mfxsr -mhle -msahf -mno-lwp -mlzcnt -mmovbe -mno-movdir64b -mno-movdiri -mno-mwaitx -mno-pconfig -mno-pku -mno-prefetchwt1 -mprfchw -mno-ptwrite -mno-rdpid -mrdrnd -mrdseed -mrtm -mno-serialize -msgx -mno-sha -mno-shstk -mno-tbm -mno-tsxldtrk -mno-vaes -mno-waitpkg -mno-wbnoinvd -mxsave -mxsavec -mxsaveopt -mxsaves -mno-amx-tile -mno-amx-int8 -mno-amx-bf16 -mno-uintr -mno-hreset -mno-kl -mno-widekl -mno-avxvnni -mno-avx512fp16 -mno-avxifma -mno-avxvnniint8 -mno-avxneconvert -mno-cmpccxadd -mno-amx-fp16 -mno-prefetchi -mno-raoint -mno-amx-complex --param=l1-cache-size=32 --param=l1-cache-line-size=64 --param=l2-cache-size=16384 -mtune=skylake -mavx2 -g -Ofast -p -fasynchronous-unwind-tables -fstack-protector-strong -fstack-clash-protection -fcf-protection
	.text
.Ltext0:
	.file 0 "/home/fabi/42/cub3D/libft" "ft_memmove.c"
	.p2align 4
	.globl	ft_memmove
	.type	ft_memmove, @function
ft_memmove:
.LVL0:
.LFB51:
	.file 1 "ft_memmove.c"
	.loc 1 18 1 view -0
	.cfi_startproc
	.loc 1 18 1 is_stmt 0 view .LVU1
	endbr64	
	pushq	%rbp	#
	.cfi_def_cfa_offset 16
	.cfi_offset 6, -16
	movq	%rsp, %rbp	#,
	.cfi_def_cfa_register 6
	andq	$-32, %rsp	#,
1:	call	*mcount@GOTPCREL(%rip)
# ft_memmove.c:18: {
	.loc 1 18 1 view .LVU2
	.loc 1 19 2 is_stmt 1 view .LVU3
	.loc 1 20 2 view .LVU4
	.loc 1 22 2 view .LVU5
# ft_memmove.c:18: {
	.loc 1 18 1 is_stmt 0 view .LVU6
	movq	%rdi, %rcx	# tmp224, dst
# ft_memmove.c:22: 	if (!dst)
	.loc 1 22 5 view .LVU7
	testq	%rdi, %rdi	# dst
	je	.L2	#,
	.loc 1 24 2 is_stmt 1 view .LVU8
	.loc 1 26 2 view .LVU9
# ft_memmove.c:26: 	if (!len)
	.loc 1 26 5 is_stmt 0 view .LVU10
	testq	%rdx, %rdx	# len
	je	.L2	#,
	.loc 1 28 2 is_stmt 1 view .LVU11
.LVL1:
	.loc 1 29 2 view .LVU12
	.loc 1 30 2 view .LVU13
# ft_memmove.c:36: 	while (len--)
	.loc 1 36 12 is_stmt 0 view .LVU14
	leaq	-1(%rdx), %rax	#, tmp.45
# ft_memmove.c:30: 	if (d < s)
	.loc 1 30 5 view .LVU15
	cmpq	%rsi, %rdi	# src, dst
	jb	.L133	#,
	cmpq	$14, %rax	#, tmp.45
	jbe	.L22	#,
	leaq	(%rdi,%rax), %rdi	#, tmp208
.LVL2:
	.loc 1 30 5 view .LVU16
	leaq	-2(%rsi,%rdx), %r8	#, tmp210
	subq	%r8, %rdi	# tmp210, tmp211
	addq	$30, %rdi	#, tmp212
	cmpq	$30, %rdi	#, tmp212
	ja	.L134	#,
.LVL3:
	.p2align 4,,10
	.p2align 3
.L22:
	.loc 1 37 3 is_stmt 1 view .LVU17
# ft_memmove.c:37: 		*(d + len) = *(s + len);
	.loc 1 37 16 is_stmt 0 view .LVU18
	movzbl	(%rsi,%rax), %edx	# MEM[(const char *)src_15(D) + len_121 * 1], _124
# ft_memmove.c:37: 		*(d + len) = *(s + len);
	.loc 1 37 14 view .LVU19
	movb	%dl, (%rcx,%rax)	# _124, MEM[(char *)dst_14(D) + len_121 * 1]
	.loc 1 36 9 is_stmt 1 view .LVU20
.LVL4:
	.loc 1 36 9 is_stmt 0 view .LVU21
	subq	$1, %rax	#, tmp.45
.LVL5:
	.loc 1 36 9 view .LVU22
	jnb	.L22	#,
.LVL6:
.L2:
# ft_memmove.c:39: }
	.loc 1 39 1 view .LVU23
	leave	
	.cfi_remember_state
	.cfi_def_cfa 7, 8
	movq	%rcx, %rax	# dst,
	ret	
.LVL7:
	.p2align 4,,10
	.p2align 3
.L133:
	.cfi_restore_state
	.loc 1 39 1 view .LVU24
	cmpq	$14, %rax	#, tmp.45
	jbe	.L24	#,
	leaq	1(%rsi), %rdi	#, tmp201
	movq	%rcx, %r8	# dst, tmp202
	subq	%rdi, %r8	# tmp201, tmp202
# ft_memmove.c:30: 	if (d < s)
	.loc 1 30 5 view .LVU25
	xorl	%edi, %edi	# ivtmp.59
	cmpq	$30, %r8	#, tmp202
	ja	.L135	#,
.LVL8:
	.p2align 4,,10
	.p2align 3
.L13:
	.loc 1 33 4 is_stmt 1 view .LVU26
# ft_memmove.c:33: 			*(d++) = *(s++);
	.loc 1 33 13 is_stmt 0 view .LVU27
	movzbl	(%rsi,%rdi), %eax	# MEM[(const char *)src_15(D) + ivtmp.59_118 * 1], _40
# ft_memmove.c:33: 			*(d++) = *(s++);
	.loc 1 33 11 view .LVU28
	movb	%al, (%rcx,%rdi)	# _40, MEM[(char *)dst_14(D) + ivtmp.59_118 * 1]
	.loc 1 32 10 is_stmt 1 view .LVU29
.LVL9:
	.loc 1 32 10 is_stmt 0 view .LVU30
	incq	%rdi	# ivtmp.59
.LVL10:
	.loc 1 32 10 view .LVU31
	cmpq	%rdi, %rdx	# ivtmp.59, len
	je	.L2	#,
	.loc 1 33 4 is_stmt 1 view .LVU32
.LVL11:
# ft_memmove.c:33: 			*(d++) = *(s++);
	.loc 1 33 13 is_stmt 0 view .LVU33
	movzbl	(%rsi,%rdi), %eax	# MEM[(const char *)src_15(D) + ivtmp.59_118 * 1], _40
# ft_memmove.c:33: 			*(d++) = *(s++);
	.loc 1 33 11 view .LVU34
	movb	%al, (%rcx,%rdi)	# _40, MEM[(char *)dst_14(D) + ivtmp.59_118 * 1]
	.loc 1 32 10 is_stmt 1 view .LVU35
.LVL12:
	.loc 1 32 10 is_stmt 0 view .LVU36
	incq	%rdi	# ivtmp.59
.LVL13:
	.loc 1 32 10 view .LVU37
	cmpq	%rdi, %rdx	# ivtmp.59, len
	jne	.L13	#,
	jmp	.L2	#
.LVL14:
	.p2align 4,,10
	.p2align 3
.L135:
	.loc 1 32 10 view .LVU38
	cmpq	$30, %rax	#, tmp.45
	jbe	.L26	#,
	movq	%rdx, %r8	# len, _9
	andq	$-32, %r8	#, _9
.LVL15:
	.p2align 4,,10
	.p2align 3
.L7:
	.loc 1 33 4 is_stmt 1 view .LVU39
# ft_memmove.c:33: 			*(d++) = *(s++);
	.loc 1 33 11 is_stmt 0 view .LVU40
	vmovdqu	(%rsi,%rdi), %ymm1	# MEM <const vector(32) char> [(const char *)src_15(D) + ivtmp.72_188 * 1], tmp230
	vmovdqu	%ymm1, (%rcx,%rdi)	# tmp230, MEM <vector(32) char> [(char *)dst_14(D) + ivtmp.72_188 * 1]
	.loc 1 32 10 is_stmt 1 view .LVU41
	addq	$32, %rdi	#, ivtmp.72
	cmpq	%rdi, %r8	# ivtmp.72, _9
	jne	.L7	#,
	leaq	(%rcx,%r8), %rdi	#, tmp.23
	leaq	(%rsi,%r8), %r9	#, tmp.24
	subq	%r8, %rax	# _9, tmp.45
	cmpq	%rdx, %r8	# len, _9
	je	.L129	#,
	subq	%r8, %rdx	# _9, len
	leaq	-1(%rdx), %r10	#, tmp205
	cmpq	$14, %r10	#, tmp205
	jbe	.L136	#,
	vzeroupper
.LVL16:
.L6:
	.loc 1 33 4 view .LVU42
	.loc 1 32 10 view .LVU43
# ft_memmove.c:33: 			*(d++) = *(s++);
	.loc 1 33 13 is_stmt 0 view .LVU44
	vmovdqu	(%rsi,%r8), %xmm3	# MEM <const vector(16) char> [(const char *)vectp_src.27_99], tmp231
	movq	%rdx, %rsi	# len, niters_vector_mult_vf.22
.LVL17:
	.loc 1 33 13 view .LVU45
	andq	$-16, %rsi	#, niters_vector_mult_vf.22
	addq	%rsi, %rdi	# niters_vector_mult_vf.22, tmp.23
	addq	%rsi, %r9	# niters_vector_mult_vf.22, tmp.24
	subq	%rsi, %rax	# niters_vector_mult_vf.22, tmp.45
	andl	$15, %edx	#, len
	vmovdqu	%xmm3, (%rcx,%r8)	# tmp231, MEM <vector(16) char> [(char *)vectp_dst.30_103]
	je	.L2	#,
.LVL18:
.L11:
	.loc 1 33 4 is_stmt 1 view .LVU46
# ft_memmove.c:33: 			*(d++) = *(s++);
	.loc 1 33 13 is_stmt 0 view .LVU47
	movzbl	(%r9), %edx	# *s_90, _36
# ft_memmove.c:33: 			*(d++) = *(s++);
	.loc 1 33 11 view .LVU48
	movb	%dl, (%rdi)	# _36, *d_89
	.loc 1 32 10 is_stmt 1 view .LVU49
.LVL19:
	.loc 1 32 10 is_stmt 0 view .LVU50
	testq	%rax, %rax	# tmp.45
	je	.L2	#,
	.loc 1 33 4 is_stmt 1 view .LVU51
.LVL20:
# ft_memmove.c:33: 			*(d++) = *(s++);
	.loc 1 33 13 is_stmt 0 view .LVU52
	movzbl	1(%r9), %edx	# MEM[(const char *)s_90 + 1B], _131
# ft_memmove.c:33: 			*(d++) = *(s++);
	.loc 1 33 11 view .LVU53
	movb	%dl, 1(%rdi)	# _131, MEM[(char *)d_89 + 1B]
	.loc 1 32 10 is_stmt 1 view .LVU54
.LVL21:
	.loc 1 32 10 is_stmt 0 view .LVU55
	cmpq	$1, %rax	#, tmp.45
	je	.L2	#,
	.loc 1 33 4 is_stmt 1 view .LVU56
.LVL22:
# ft_memmove.c:33: 			*(d++) = *(s++);
	.loc 1 33 13 is_stmt 0 view .LVU57
	movzbl	2(%r9), %edx	# MEM[(const char *)s_90 + 2B], _50
# ft_memmove.c:33: 			*(d++) = *(s++);
	.loc 1 33 11 view .LVU58
	movb	%dl, 2(%rdi)	# _50, MEM[(char *)d_89 + 2B]
	.loc 1 32 10 is_stmt 1 view .LVU59
.LVL23:
	.loc 1 32 10 is_stmt 0 view .LVU60
	cmpq	$2, %rax	#, tmp.45
	je	.L2	#,
	.loc 1 33 4 is_stmt 1 view .LVU61
.LVL24:
# ft_memmove.c:33: 			*(d++) = *(s++);
	.loc 1 33 13 is_stmt 0 view .LVU62
	movzbl	3(%r9), %edx	# MEM[(const char *)s_90 + 3B], _152
# ft_memmove.c:33: 			*(d++) = *(s++);
	.loc 1 33 11 view .LVU63
	movb	%dl, 3(%rdi)	# _152, MEM[(char *)d_89 + 3B]
	.loc 1 32 10 is_stmt 1 view .LVU64
.LVL25:
	.loc 1 32 10 is_stmt 0 view .LVU65
	cmpq	$3, %rax	#, tmp.45
	je	.L2	#,
	.loc 1 33 4 is_stmt 1 view .LVU66
.LVL26:
# ft_memmove.c:33: 			*(d++) = *(s++);
	.loc 1 33 13 is_stmt 0 view .LVU67
	movzbl	4(%r9), %edx	# MEM[(const char *)s_90 + 4B], _196
# ft_memmove.c:33: 			*(d++) = *(s++);
	.loc 1 33 11 view .LVU68
	movb	%dl, 4(%rdi)	# _196, MEM[(char *)d_89 + 4B]
	.loc 1 32 10 is_stmt 1 view .LVU69
.LVL27:
	.loc 1 32 10 is_stmt 0 view .LVU70
	cmpq	$4, %rax	#, tmp.45
	je	.L2	#,
	.loc 1 33 4 is_stmt 1 view .LVU71
.LVL28:
# ft_memmove.c:33: 			*(d++) = *(s++);
	.loc 1 33 13 is_stmt 0 view .LVU72
	movzbl	5(%r9), %edx	# MEM[(const char *)s_90 + 5B], _205
# ft_memmove.c:33: 			*(d++) = *(s++);
	.loc 1 33 11 view .LVU73
	movb	%dl, 5(%rdi)	# _205, MEM[(char *)d_89 + 5B]
	.loc 1 32 10 is_stmt 1 view .LVU74
.LVL29:
	.loc 1 32 10 is_stmt 0 view .LVU75
	cmpq	$5, %rax	#, tmp.45
	je	.L2	#,
	.loc 1 33 4 is_stmt 1 view .LVU76
.LVL30:
# ft_memmove.c:33: 			*(d++) = *(s++);
	.loc 1 33 13 is_stmt 0 view .LVU77
	movzbl	6(%r9), %edx	# MEM[(const char *)s_90 + 6B], _214
# ft_memmove.c:33: 			*(d++) = *(s++);
	.loc 1 33 11 view .LVU78
	movb	%dl, 6(%rdi)	# _214, MEM[(char *)d_89 + 6B]
	.loc 1 32 10 is_stmt 1 view .LVU79
.LVL31:
	.loc 1 32 10 is_stmt 0 view .LVU80
	cmpq	$6, %rax	#, tmp.45
	je	.L2	#,
	.loc 1 33 4 is_stmt 1 view .LVU81
.LVL32:
# ft_memmove.c:33: 			*(d++) = *(s++);
	.loc 1 33 13 is_stmt 0 view .LVU82
	movzbl	7(%r9), %edx	# MEM[(const char *)s_90 + 7B], _223
# ft_memmove.c:33: 			*(d++) = *(s++);
	.loc 1 33 11 view .LVU83
	movb	%dl, 7(%rdi)	# _223, MEM[(char *)d_89 + 7B]
	.loc 1 32 10 is_stmt 1 view .LVU84
.LVL33:
	.loc 1 32 10 is_stmt 0 view .LVU85
	cmpq	$7, %rax	#, tmp.45
	je	.L2	#,
	.loc 1 33 4 is_stmt 1 view .LVU86
.LVL34:
# ft_memmove.c:33: 			*(d++) = *(s++);
	.loc 1 33 13 is_stmt 0 view .LVU87
	movzbl	8(%r9), %edx	# MEM[(const char *)s_90 + 8B], _232
# ft_memmove.c:33: 			*(d++) = *(s++);
	.loc 1 33 11 view .LVU88
	movb	%dl, 8(%rdi)	# _232, MEM[(char *)d_89 + 8B]
	.loc 1 32 10 is_stmt 1 view .LVU89
.LVL35:
	.loc 1 32 10 is_stmt 0 view .LVU90
	cmpq	$8, %rax	#, tmp.45
	je	.L2	#,
	.loc 1 33 4 is_stmt 1 view .LVU91
.LVL36:
# ft_memmove.c:33: 			*(d++) = *(s++);
	.loc 1 33 13 is_stmt 0 view .LVU92
	movzbl	9(%r9), %edx	# MEM[(const char *)s_90 + 9B], _241
# ft_memmove.c:33: 			*(d++) = *(s++);
	.loc 1 33 11 view .LVU93
	movb	%dl, 9(%rdi)	# _241, MEM[(char *)d_89 + 9B]
	.loc 1 32 10 is_stmt 1 view .LVU94
.LVL37:
	.loc 1 32 10 is_stmt 0 view .LVU95
	cmpq	$9, %rax	#, tmp.45
	je	.L2	#,
	.loc 1 33 4 is_stmt 1 view .LVU96
.LVL38:
# ft_memmove.c:33: 			*(d++) = *(s++);
	.loc 1 33 13 is_stmt 0 view .LVU97
	movzbl	10(%r9), %edx	# MEM[(const char *)s_90 + 10B], _250
# ft_memmove.c:33: 			*(d++) = *(s++);
	.loc 1 33 11 view .LVU98
	movb	%dl, 10(%rdi)	# _250, MEM[(char *)d_89 + 10B]
	.loc 1 32 10 is_stmt 1 view .LVU99
.LVL39:
	.loc 1 32 10 is_stmt 0 view .LVU100
	cmpq	$10, %rax	#, tmp.45
	je	.L2	#,
	.loc 1 33 4 is_stmt 1 view .LVU101
.LVL40:
# ft_memmove.c:33: 			*(d++) = *(s++);
	.loc 1 33 13 is_stmt 0 view .LVU102
	movzbl	11(%r9), %edx	# MEM[(const char *)s_90 + 11B], _259
# ft_memmove.c:33: 			*(d++) = *(s++);
	.loc 1 33 11 view .LVU103
	movb	%dl, 11(%rdi)	# _259, MEM[(char *)d_89 + 11B]
	.loc 1 32 10 is_stmt 1 view .LVU104
.LVL41:
	.loc 1 32 10 is_stmt 0 view .LVU105
	cmpq	$11, %rax	#, tmp.45
	je	.L2	#,
	.loc 1 33 4 is_stmt 1 view .LVU106
.LVL42:
# ft_memmove.c:33: 			*(d++) = *(s++);
	.loc 1 33 13 is_stmt 0 view .LVU107
	movzbl	12(%r9), %edx	# MEM[(const char *)s_90 + 12B], _268
# ft_memmove.c:33: 			*(d++) = *(s++);
	.loc 1 33 11 view .LVU108
	movb	%dl, 12(%rdi)	# _268, MEM[(char *)d_89 + 12B]
	.loc 1 32 10 is_stmt 1 view .LVU109
.LVL43:
	.loc 1 32 10 is_stmt 0 view .LVU110
	cmpq	$12, %rax	#, tmp.45
	je	.L2	#,
	.loc 1 33 4 is_stmt 1 view .LVU111
.LVL44:
# ft_memmove.c:33: 			*(d++) = *(s++);
	.loc 1 33 13 is_stmt 0 view .LVU112
	movzbl	13(%r9), %edx	# MEM[(const char *)s_90 + 13B], _277
# ft_memmove.c:33: 			*(d++) = *(s++);
	.loc 1 33 11 view .LVU113
	movb	%dl, 13(%rdi)	# _277, MEM[(char *)d_89 + 13B]
	.loc 1 32 10 is_stmt 1 view .LVU114
.LVL45:
	.loc 1 32 10 is_stmt 0 view .LVU115
	cmpq	$13, %rax	#, tmp.45
	je	.L2	#,
	.loc 1 33 4 is_stmt 1 view .LVU116
.LVL46:
# ft_memmove.c:33: 			*(d++) = *(s++);
	.loc 1 33 13 is_stmt 0 view .LVU117
	movzbl	14(%r9), %eax	# MEM[(const char *)s_90 + 14B], _83
.LVL47:
# ft_memmove.c:33: 			*(d++) = *(s++);
	.loc 1 33 11 view .LVU118
	movb	%al, 14(%rdi)	# _83, MEM[(char *)d_89 + 14B]
	.loc 1 32 10 is_stmt 1 view .LVU119
	.loc 1 32 10 is_stmt 0 view .LVU120
	jmp	.L2	#
.LVL48:
	.p2align 4,,10
	.p2align 3
.L24:
# ft_memmove.c:30: 	if (d < s)
	.loc 1 30 5 view .LVU121
	xorl	%edi, %edi	# ivtmp.59
	jmp	.L13	#
	.p2align 4,,10
	.p2align 3
.L134:
	cmpq	$30, %rax	#, tmp.45
	jbe	.L16	#,
	movq	%rdx, %r9	# len, tmp215
	leaq	-32(%rdx), %r8	#, _146
	xorl	%edi, %edi	# ivtmp.90
	andq	$-32, %r9	#, tmp215
	leaq	(%rsi,%r8), %r10	#, vectp.36
	addq	%rcx, %r8	# dst, vectp.40
	negq	%r9	# tmp216
.LVL49:
	.p2align 4,,10
	.p2align 3
.L17:
	.loc 1 37 3 is_stmt 1 view .LVU122
# ft_memmove.c:37: 		*(d + len) = *(s + len);
	.loc 1 37 14 is_stmt 0 view .LVU123
	vmovdqu	(%r10,%rdi), %ymm0	# MEM <const vector(32) char> [(const char *)vectp.36_145 + ivtmp.90_101 * 1], tmp234
	vmovdqu	%ymm0, (%r8,%rdi)	# tmp234, MEM <vector(32) char> [(char *)vectp.40_151 + ivtmp.90_101 * 1]
	.loc 1 36 9 is_stmt 1 view .LVU124
	subq	$32, %rdi	#, ivtmp.90
	cmpq	%r9, %rdi	# tmp216, ivtmp.90
	jne	.L17	#,
	movq	%rdx, %rdi	# len, niters_vector_mult_vf.33
	andq	$-32, %rdi	#, niters_vector_mult_vf.33
	subq	%rdi, %rax	# niters_vector_mult_vf.33, tmp.45
	testb	$31, %dl	#, len
	je	.L129	#,
	subq	%rdi, %rdx	# niters_vector_mult_vf.33, len
	leaq	-1(%rdx), %rdi	#, tmp219
	cmpq	$14, %rdi	#, tmp219
	jbe	.L130	#,
	vzeroupper
.LVL50:
.L16:
	.loc 1 37 3 view .LVU125
# ft_memmove.c:37: 		*(d + len) = *(s + len);
	.loc 1 37 14 is_stmt 0 view .LVU126
	vmovdqu	-16(%rsi,%rdx), %xmm2	# MEM <const vector(16) char> [(const char *)vectp.47_177], tmp236
	movq	%rdx, %rdi	# len, niters_vector_mult_vf.44
	andq	$-16, %rdi	#, niters_vector_mult_vf.44
	vmovdqu	%xmm2, -16(%rcx,%rdx)	# tmp236, MEM <vector(16) char> [(char *)vectp.51_184]
	.loc 1 36 9 is_stmt 1 view .LVU127
	subq	%rdi, %rax	# niters_vector_mult_vf.44, tmp.45
	andl	$15, %edx	#, len
	je	.L2	#,
.L20:
.LVL51:
	.loc 1 37 3 view .LVU128
# ft_memmove.c:37: 		*(d + len) = *(s + len);
	.loc 1 37 16 is_stmt 0 view .LVU129
	movzbl	(%rsi,%rax), %edx	# *_282, _284
# ft_memmove.c:37: 		*(d + len) = *(s + len);
	.loc 1 37 14 view .LVU130
	movb	%dl, (%rcx,%rax)	# _284, *_283
	.loc 1 36 9 is_stmt 1 view .LVU131
# ft_memmove.c:36: 	while (len--)
	.loc 1 36 12 is_stmt 0 view .LVU132
	leaq	-1(%rax), %rdx	#, len
.LVL52:
# ft_memmove.c:36: 	while (len--)
	.loc 1 36 9 view .LVU133
	testq	%rax, %rax	# tmp.45
	je	.L2	#,
	.loc 1 37 3 is_stmt 1 view .LVU134
# ft_memmove.c:37: 		*(d + len) = *(s + len);
	.loc 1 37 16 is_stmt 0 view .LVU135
	movzbl	-1(%rsi,%rax), %edi	# *_289, _291
# ft_memmove.c:37: 		*(d + len) = *(s + len);
	.loc 1 37 14 view .LVU136
	movb	%dil, -1(%rcx,%rax)	# _291, *_290
	.loc 1 36 9 is_stmt 1 view .LVU137
# ft_memmove.c:36: 	while (len--)
	.loc 1 36 12 is_stmt 0 view .LVU138
	leaq	-2(%rax), %rdi	#, len
.LVL53:
# ft_memmove.c:36: 	while (len--)
	.loc 1 36 9 view .LVU139
	testq	%rdx, %rdx	# len
	je	.L2	#,
	.loc 1 37 3 is_stmt 1 view .LVU140
# ft_memmove.c:37: 		*(d + len) = *(s + len);
	.loc 1 37 16 is_stmt 0 view .LVU141
	movzbl	-2(%rsi,%rax), %edx	# *_296, _298
# ft_memmove.c:37: 		*(d + len) = *(s + len);
	.loc 1 37 14 view .LVU142
	movb	%dl, -2(%rcx,%rax)	# _298, *_297
	.loc 1 36 9 is_stmt 1 view .LVU143
# ft_memmove.c:36: 	while (len--)
	.loc 1 36 12 is_stmt 0 view .LVU144
	leaq	-3(%rax), %rdx	#, len
.LVL54:
# ft_memmove.c:36: 	while (len--)
	.loc 1 36 9 view .LVU145
	testq	%rdi, %rdi	# len
	je	.L2	#,
	.loc 1 37 3 is_stmt 1 view .LVU146
# ft_memmove.c:37: 		*(d + len) = *(s + len);
	.loc 1 37 16 is_stmt 0 view .LVU147
	movzbl	-3(%rsi,%rax), %edi	# *_303, _305
# ft_memmove.c:37: 		*(d + len) = *(s + len);
	.loc 1 37 14 view .LVU148
	movb	%dil, -3(%rcx,%rax)	# _305, *_304
	.loc 1 36 9 is_stmt 1 view .LVU149
# ft_memmove.c:36: 	while (len--)
	.loc 1 36 12 is_stmt 0 view .LVU150
	leaq	-4(%rax), %rdi	#, len
.LVL55:
# ft_memmove.c:36: 	while (len--)
	.loc 1 36 9 view .LVU151
	testq	%rdx, %rdx	# len
	je	.L2	#,
	.loc 1 37 3 is_stmt 1 view .LVU152
# ft_memmove.c:37: 		*(d + len) = *(s + len);
	.loc 1 37 16 is_stmt 0 view .LVU153
	movzbl	-4(%rsi,%rax), %edx	# *_310, _312
# ft_memmove.c:37: 		*(d + len) = *(s + len);
	.loc 1 37 14 view .LVU154
	movb	%dl, -4(%rcx,%rax)	# _312, *_311
	.loc 1 36 9 is_stmt 1 view .LVU155
# ft_memmove.c:36: 	while (len--)
	.loc 1 36 12 is_stmt 0 view .LVU156
	leaq	-5(%rax), %rdx	#, len
.LVL56:
# ft_memmove.c:36: 	while (len--)
	.loc 1 36 9 view .LVU157
	testq	%rdi, %rdi	# len
	je	.L2	#,
	.loc 1 37 3 is_stmt 1 view .LVU158
# ft_memmove.c:37: 		*(d + len) = *(s + len);
	.loc 1 37 16 is_stmt 0 view .LVU159
	movzbl	-5(%rsi,%rax), %edi	# *_317, _319
# ft_memmove.c:37: 		*(d + len) = *(s + len);
	.loc 1 37 14 view .LVU160
	movb	%dil, -5(%rcx,%rax)	# _319, *_318
	.loc 1 36 9 is_stmt 1 view .LVU161
# ft_memmove.c:36: 	while (len--)
	.loc 1 36 12 is_stmt 0 view .LVU162
	leaq	-6(%rax), %rdi	#, len
.LVL57:
# ft_memmove.c:36: 	while (len--)
	.loc 1 36 9 view .LVU163
	testq	%rdx, %rdx	# len
	je	.L2	#,
	.loc 1 37 3 is_stmt 1 view .LVU164
# ft_memmove.c:37: 		*(d + len) = *(s + len);
	.loc 1 37 16 is_stmt 0 view .LVU165
	movzbl	-6(%rsi,%rax), %edx	# *_324, _326
# ft_memmove.c:37: 		*(d + len) = *(s + len);
	.loc 1 37 14 view .LVU166
	movb	%dl, -6(%rcx,%rax)	# _326, *_325
	.loc 1 36 9 is_stmt 1 view .LVU167
# ft_memmove.c:36: 	while (len--)
	.loc 1 36 12 is_stmt 0 view .LVU168
	leaq	-7(%rax), %rdx	#, len
.LVL58:
# ft_memmove.c:36: 	while (len--)
	.loc 1 36 9 view .LVU169
	testq	%rdi, %rdi	# len
	je	.L2	#,
	.loc 1 37 3 is_stmt 1 view .LVU170
# ft_memmove.c:37: 		*(d + len) = *(s + len);
	.loc 1 37 16 is_stmt 0 view .LVU171
	movzbl	-7(%rsi,%rax), %edi	# *_331, _333
# ft_memmove.c:37: 		*(d + len) = *(s + len);
	.loc 1 37 14 view .LVU172
	movb	%dil, -7(%rcx,%rax)	# _333, *_332
	.loc 1 36 9 is_stmt 1 view .LVU173
# ft_memmove.c:36: 	while (len--)
	.loc 1 36 12 is_stmt 0 view .LVU174
	leaq	-8(%rax), %rdi	#, len
.LVL59:
# ft_memmove.c:36: 	while (len--)
	.loc 1 36 9 view .LVU175
	testq	%rdx, %rdx	# len
	je	.L2	#,
	.loc 1 37 3 is_stmt 1 view .LVU176
# ft_memmove.c:37: 		*(d + len) = *(s + len);
	.loc 1 37 16 is_stmt 0 view .LVU177
	movzbl	-8(%rsi,%rax), %edx	# *_338, _340
# ft_memmove.c:37: 		*(d + len) = *(s + len);
	.loc 1 37 14 view .LVU178
	movb	%dl, -8(%rcx,%rax)	# _340, *_339
	.loc 1 36 9 is_stmt 1 view .LVU179
# ft_memmove.c:36: 	while (len--)
	.loc 1 36 12 is_stmt 0 view .LVU180
	leaq	-9(%rax), %rdx	#, len
.LVL60:
# ft_memmove.c:36: 	while (len--)
	.loc 1 36 9 view .LVU181
	testq	%rdi, %rdi	# len
	je	.L2	#,
	.loc 1 37 3 is_stmt 1 view .LVU182
# ft_memmove.c:37: 		*(d + len) = *(s + len);
	.loc 1 37 16 is_stmt 0 view .LVU183
	movzbl	-9(%rsi,%rax), %edi	# *_345, _347
# ft_memmove.c:37: 		*(d + len) = *(s + len);
	.loc 1 37 14 view .LVU184
	movb	%dil, -9(%rcx,%rax)	# _347, *_346
	.loc 1 36 9 is_stmt 1 view .LVU185
# ft_memmove.c:36: 	while (len--)
	.loc 1 36 12 is_stmt 0 view .LVU186
	leaq	-10(%rax), %rdi	#, len
.LVL61:
# ft_memmove.c:36: 	while (len--)
	.loc 1 36 9 view .LVU187
	testq	%rdx, %rdx	# len
	je	.L2	#,
	.loc 1 37 3 is_stmt 1 view .LVU188
# ft_memmove.c:37: 		*(d + len) = *(s + len);
	.loc 1 37 16 is_stmt 0 view .LVU189
	movzbl	-10(%rsi,%rax), %edx	# *_352, _354
# ft_memmove.c:37: 		*(d + len) = *(s + len);
	.loc 1 37 14 view .LVU190
	movb	%dl, -10(%rcx,%rax)	# _354, *_353
	.loc 1 36 9 is_stmt 1 view .LVU191
# ft_memmove.c:36: 	while (len--)
	.loc 1 36 12 is_stmt 0 view .LVU192
	leaq	-11(%rax), %rdx	#, len
.LVL62:
# ft_memmove.c:36: 	while (len--)
	.loc 1 36 9 view .LVU193
	testq	%rdi, %rdi	# len
	je	.L2	#,
	.loc 1 37 3 is_stmt 1 view .LVU194
# ft_memmove.c:37: 		*(d + len) = *(s + len);
	.loc 1 37 16 is_stmt 0 view .LVU195
	movzbl	-11(%rsi,%rax), %edi	# *_359, _361
# ft_memmove.c:37: 		*(d + len) = *(s + len);
	.loc 1 37 14 view .LVU196
	movb	%dil, -11(%rcx,%rax)	# _361, *_360
	.loc 1 36 9 is_stmt 1 view .LVU197
# ft_memmove.c:36: 	while (len--)
	.loc 1 36 12 is_stmt 0 view .LVU198
	leaq	-12(%rax), %rdi	#, len
.LVL63:
# ft_memmove.c:36: 	while (len--)
	.loc 1 36 9 view .LVU199
	testq	%rdx, %rdx	# len
	je	.L2	#,
	.loc 1 37 3 is_stmt 1 view .LVU200
# ft_memmove.c:37: 		*(d + len) = *(s + len);
	.loc 1 37 16 is_stmt 0 view .LVU201
	movzbl	-12(%rsi,%rax), %edx	# *_366, _368
# ft_memmove.c:37: 		*(d + len) = *(s + len);
	.loc 1 37 14 view .LVU202
	movb	%dl, -12(%rcx,%rax)	# _368, *_367
	.loc 1 36 9 is_stmt 1 view .LVU203
# ft_memmove.c:36: 	while (len--)
	.loc 1 36 12 is_stmt 0 view .LVU204
	leaq	-13(%rax), %rdx	#, len
.LVL64:
# ft_memmove.c:36: 	while (len--)
	.loc 1 36 9 view .LVU205
	testq	%rdi, %rdi	# len
	je	.L2	#,
	.loc 1 37 3 is_stmt 1 view .LVU206
# ft_memmove.c:37: 		*(d + len) = *(s + len);
	.loc 1 37 16 is_stmt 0 view .LVU207
	movzbl	-13(%rsi,%rax), %edi	# *_373, _375
# ft_memmove.c:37: 		*(d + len) = *(s + len);
	.loc 1 37 14 view .LVU208
	movb	%dil, -13(%rcx,%rax)	# _375, *_374
	.loc 1 36 9 is_stmt 1 view .LVU209
.LVL65:
	.loc 1 36 9 is_stmt 0 view .LVU210
	testq	%rdx, %rdx	# len
	je	.L2	#,
	.loc 1 37 3 is_stmt 1 view .LVU211
# ft_memmove.c:37: 		*(d + len) = *(s + len);
	.loc 1 37 16 is_stmt 0 view .LVU212
	movzbl	-14(%rsi,%rax), %edx	# *_163, _165
# ft_memmove.c:37: 		*(d + len) = *(s + len);
	.loc 1 37 14 view .LVU213
	movb	%dl, -14(%rcx,%rax)	# _165, *_164
	.loc 1 36 9 is_stmt 1 view .LVU214
.LVL66:
	.loc 1 36 9 is_stmt 0 view .LVU215
	jmp	.L2	#
.LVL67:
.L130:
	.loc 1 36 9 view .LVU216
	vzeroupper
.LVL68:
	jmp	.L20	#
.LVL69:
.L26:
# ft_memmove.c:28: 	s = (const char *)src;
	.loc 1 28 4 view .LVU217
	movq	%rsi, %r9	# src, tmp.24
# ft_memmove.c:29: 	d = (char *) dst;
	.loc 1 29 4 view .LVU218
	movq	%rcx, %rdi	# dst, tmp.23
# ft_memmove.c:30: 	if (d < s)
	.loc 1 30 5 view .LVU219
	xorl	%r8d, %r8d	# _9
	jmp	.L6	#
.LVL70:
.L136:
	.loc 1 30 5 view .LVU220
	vzeroupper
.LVL71:
	jmp	.L11	#
.LVL72:
.L129:
	.loc 1 30 5 view .LVU221
	vzeroupper
.LVL73:
	jmp	.L2	#
	.cfi_endproc
.LFE51:
	.size	ft_memmove, .-ft_memmove
.Letext0:
	.file 2 "/usr/lib/gcc/x86_64-linux-gnu/13/include/stddef.h"
	.section	.note.GNU-stack,"",@progbits
	.section	.note.gnu.property,"a"
	.align 8
	.long	1f - 0f
	.long	4f - 1f
	.long	5
0:
	.string	"GNU"
1:
	.align 8
	.long	0xc0000002
	.long	3f - 2f
2:
	.long	0x3
3:
	.align 8
4:

ft_strlcpy.o/   0           0     0     644     14077     `
	.file	"ft_strlcpy.c"
# GNU C17 (Ubuntu 13.2.0-23ubuntu4) version 13.2.0 (x86_64-linux-gnu)
#	compiled by GNU C version 13.2.0, GMP version 6.3.0, MPFR version 4.2.1, MPC version 1.3.1, isl version isl-0.26-GMP

# GGC heuristics: --param ggc-min-expand=100 --param ggc-min-heapsize=131072
# options passed: -march=skylake -mmmx -mpopcnt -msse -msse2 -msse3 -mssse3 -msse4.1 -msse4.2 -mavx -mno-sse4a -mno-fma4 -mno-xop -mfma -mno-avx512f -mbmi -mbmi2 -maes -mpclmul -mno-avx512vl -mno-avx512bw -mno-avx512dq -mno-avx512cd -mno-avx512er -mno-avx512pf -mno-avx512vbmi -mno-avx512ifma -mno-avx5124vnniw -mno-avx5124fmaps -mno-avx512vpopcntdq -mno-avx512vbmi2 -mno-gfni -mno-vpclmulqdq -mno-avx512vnni -mno-avx512bitalg -mno-avx512bf16 -mno-avx512vp2intersect -mno-3dnow -madx -mabm -mno-cldemote -mclflushopt -mno-clwb -mno-clzero -mcx16 -mno-enqcmd -mf16c -mfsgsbase -mfxsr -mhle -msahf -mno-lwp -mlzcnt -mmovbe -mno-movdir64b -mno-movdiri -mno-mwaitx -mno-pconfig -mno-pku -mno-prefetchwt1 -mprfchw -mno-ptwrite -mno-rdpid -mrdrnd -mrdseed -mrtm -mno-serialize -msgx -mno-sha -mno-shstk -mno-tbm -mno-tsxldtrk -mno-vaes -mno-waitpkg -mno-wbnoinvd -mxsave -mxsavec -mxsaveopt -mxsaves -mno-amx-tile -mno-amx-int8 -mno-amx-bf16 -mno-uintr -mno-hreset -mno-kl -mno-widekl -mno-avxvnni -mno-avx512fp16 -mno-avxifma -mno-avxvnniint8 -mno-avxneconvert -mno-cmpccxadd -mno-amx-fp16 -mno-prefetchi -mno-raoint -mno-amx-complex --param=l1-cache-size=32 --param=l1-cache-line-size=64 --param=l2-cache-size=16384 -mtune=skylake -mavx2 -g -Ofast -p -fasynchronous-unwind-tables -fstack-protector-strong -fstack-clash-protection -fcf-protection
	.text
.Ltext0:
	.file 0 "/home/fabi/42/cub3D/libft" "ft_strlcpy.c"
	.p2align 4
	.globl	ft_strlcpy
	.type	ft_strlcpy, @function
ft_strlcpy:
.LVL0:
.LFB51:
	.file 1 "ft_strlcpy.c"
	.loc 1 16 1 view -0
	.cfi_startproc
	.loc 1 16 1 is_stmt 0 view .LVU1
	endbr64	
	pushq	%rbp	#
	.cfi_def_cfa_offset 16
	.cfi_offset 6, -16
	movq	%rsp, %rbp	#,
	.cfi_def_cfa_register 6
	pushq	%r13	#
	pushq	%r12	#
	pushq	%rbx	#
	subq	$8, %rsp	#,
	.cfi_offset 13, -24
	.cfi_offset 12, -32
	.cfi_offset 3, -40
1:	call	*mcount@GOTPCREL(%rip)
# ft_strlcpy.c:16: {
	.loc 1 16 1 view .LVU2
	.loc 1 17 2 is_stmt 1 view .LVU3
	.loc 1 18 2 view .LVU4
	.loc 1 20 2 view .LVU5
# ft_strlcpy.c:16: {
	.loc 1 16 1 is_stmt 0 view .LVU6
	movq	%rdi, %rbx	# tmp92, dst
	movq	%rdx, %r13	# tmp94, dstsize
# ft_strlcpy.c:20: 	src_len = ft_strlen(src);
	.loc 1 20 12 view .LVU7
	movq	%rsi, %rdi	# src,
.LVL1:
# ft_strlcpy.c:16: {
	.loc 1 16 1 view .LVU8
	movq	%rsi, %r12	# tmp93, src
# ft_strlcpy.c:20: 	src_len = ft_strlen(src);
	.loc 1 20 12 view .LVU9
	call	ft_strlen@PLT	#
.LVL2:
	.loc 1 21 2 is_stmt 1 view .LVU10
# ft_strlcpy.c:21: 	if (!dstsize)
	.loc 1 21 5 is_stmt 0 view .LVU11
	testq	%r13, %r13	# dstsize
	je	.L1	#,
.LVL3:
	.loc 1 24 25 is_stmt 1 view .LVU12
# ft_strlcpy.c:24: 	while (i < dstsize - 1 && src[i])
	.loc 1 24 21 is_stmt 0 view .LVU13
	leaq	-1(%r13), %rsi	#, _20
# ft_strlcpy.c:23: 	i = 0;
	.loc 1 23 4 view .LVU14
	xorl	%ecx, %ecx	# i
# ft_strlcpy.c:24: 	while (i < dstsize - 1 && src[i])
	.loc 1 24 25 view .LVU15
	cmpq	$1, %r13	#, dstsize
	jne	.L3	#,
	jmp	.L4	#
.LVL4:
	.p2align 4,,10
	.p2align 3
.L5:
	.loc 1 26 3 is_stmt 1 view .LVU16
# ft_strlcpy.c:26: 		dst[i] = src[i];
	.loc 1 26 10 is_stmt 0 view .LVU17
	movb	%dl, (%rbx,%rcx)	# _5, MEM[(char *)dst_15(D) + i_21 * 1]
	.loc 1 27 3 is_stmt 1 view .LVU18
# ft_strlcpy.c:27: 		i++;
	.loc 1 27 4 is_stmt 0 view .LVU19
	incq	%rcx	# i
.LVL5:
	.loc 1 24 25 is_stmt 1 view .LVU20
	cmpq	%rsi, %rcx	# _20, i
	je	.L12	#,
.LVL6:
.L3:
# ft_strlcpy.c:24: 	while (i < dstsize - 1 && src[i])
	.loc 1 24 31 is_stmt 0 discriminator 1 view .LVU21
	movzbl	(%r12,%rcx), %edx	# MEM[(const char *)src_11(D) + i_21 * 1], _5
# ft_strlcpy.c:24: 	while (i < dstsize - 1 && src[i])
	.loc 1 24 25 discriminator 1 view .LVU22
	testb	%dl, %dl	# _5
	jne	.L5	#,
.L12:
# ft_strlcpy.c:26: 		dst[i] = src[i];
	.loc 1 26 6 view .LVU23
	addq	%rcx, %rbx	# i, dst
.LVL7:
.L4:
	.loc 1 29 2 is_stmt 1 view .LVU24
# ft_strlcpy.c:29: 	dst[i] = 0;
	.loc 1 29 9 is_stmt 0 view .LVU25
	movb	$0, (%rbx)	#, *prephitmp_1
	.loc 1 30 2 is_stmt 1 view .LVU26
.L1:
# ft_strlcpy.c:31: }
	.loc 1 31 1 is_stmt 0 view .LVU27
	addq	$8, %rsp	#,
	popq	%rbx	#
	popq	%r12	#
.LVL8:
	.loc 1 31 1 view .LVU28
	popq	%r13	#
.LVL9:
	.loc 1 31 1 view .LVU29
	popq	%rbp	#
	.cfi_def_cfa 7, 8
	ret	
	.cfi_endproc
.LFE51:
	.size	ft_strlcpy, .-ft_strlcpy
.Letext0:
	.file 2 "/usr/lib/gcc/x86_64-linux-gnu/13/include/stddef.h"
	.file 3 "../includes/libft.h"
	.section	.note.GNU-stack,"",@progbits
	.section	.note.gnu.property,"a"
	.align 8
	.long	1f - 0f
	.long	4f - 1f
	.long	5
0:
	.string	"GNU"
1:
	.align 8
	.long	0xc0000002
	.long	3f - 2f
2:
	.long	0x3
3:
	.align 8
4:

ft_strlcat.o/   0           0     0     644     16632     `
	.file	"ft_strlcat.c"
# GNU C17 (Ubuntu 13.2.0-23ubuntu4) version 13.2.0 (x86_64-linux-gnu)
#	compiled by GNU C version 13.2.0, GMP version 6.3.0, MPFR version 4.2.1, MPC version 1.3.1, isl version isl-0.26-GMP

# GGC heuristics: --param ggc-min-expand=100 --param ggc-min-heapsize=131072
# options passed: -march=skylake -mmmx -mpopcnt -msse -msse2 -msse3 -mssse3 -msse4.1 -msse4.2 -mavx -mno-sse4a -mno-fma4 -mno-xop -mfma -mno-avx512f -mbmi -mbmi2 -maes -mpclmul -mno-avx512vl -mno-avx512bw -mno-avx512dq -mno-avx512cd -mno-avx512er -mno-avx512pf -mno-avx512vbmi -mno-avx512ifma -mno-avx5124vnniw -mno-avx5124fmaps -mno-avx512vpopcntdq -mno-avx512vbmi2 -mno-gfni -mno-vpclmulqdq -mno-avx512vnni -mno-avx512bitalg -mno-avx512bf16 -mno-avx512vp2intersect -mno-3dnow -madx -mabm -mno-cldemote -mclflushopt -mno-clwb -mno-clzero -mcx16 -mno-enqcmd -mf16c -mfsgsbase -mfxsr -mhle -msahf -mno-lwp -mlzcnt -mmovbe -mno-movdir64b -mno-movdiri -mno-mwaitx -mno-pconfig -mno-pku -mno-prefetchwt1 -mprfchw -mno-ptwrite -mno-rdpid -mrdrnd -mrdseed -mrtm -mno-serialize -msgx -mno-sha -mno-shstk -mno-tbm -mno-tsxldtrk -mno-vaes -mno-waitpkg -mno-wbnoinvd -mxsave -mxsavec -mxsaveopt -mxsaves -mno-amx-tile -mno-amx-int8 -mno-amx-bf16 -mno-uintr -mno-hreset -mno-kl -mno-widekl -mno-avxvnni -mno-avx512fp16 -mno-avxifma -mno-avxvnniint8 -mno-avxneconvert -mno-cmpccxadd -mno-amx-fp16 -mno-prefetchi -mno-raoint -mno-amx-complex --param=l1-cache-size=32 --param=l1-cache-line-size=64 --param=l2-cache-size=16384 -mtune=skylake -mavx2 -g -Ofast -p -fasynchronous-unwind-tables -fstack-protector-strong -fstack-clash-protection -fcf-protection
	.text
.Ltext0:
	.file 0 "/home/fabi/42/cub3D/libft" "ft_strlcat.c"
	.p2align 4
	.globl	ft_strlcat
	.type	ft_strlcat, @function
ft_strlcat:
.LVL0:
.LFB51:
	.file 1 "ft_strlcat.c"
	.loc 1 16 1 view -0
	.cfi_startproc
	.loc 1 16 1 is_stmt 0 view .LVU1
	endbr64	
	pushq	%rbp	#
	.cfi_def_cfa_offset 16
	.cfi_offset 6, -16
	movq	%rsp, %rbp	#,
	.cfi_def_cfa_register 6
	pushq	%r14	#
	pushq	%r13	#
	pushq	%r12	#
	pushq	%rbx	#
	.cfi_offset 14, -24
	.cfi_offset 13, -32
	.cfi_offset 12, -40
	.cfi_offset 3, -48
1:	call	*mcount@GOTPCREL(%rip)
# ft_strlcat.c:16: {
	.loc 1 16 1 view .LVU2
	.loc 1 17 2 is_stmt 1 view .LVU3
	.loc 1 18 2 view .LVU4
	.loc 1 19 2 view .LVU5
	.loc 1 21 2 view .LVU6
# ft_strlcat.c:16: {
	.loc 1 16 1 is_stmt 0 view .LVU7
	movq	%rdi, %r13	# tmp96, dst
# ft_strlcat.c:21: 	src_len = ft_strlen(src);
	.loc 1 21 12 view .LVU8
	movq	%rsi, %rdi	# src,
.LVL1:
# ft_strlcat.c:16: {
	.loc 1 16 1 view .LVU9
	movq	%rdx, %r12	# tmp98, dstsize
	movq	%rsi, %rbx	# tmp97, src
# ft_strlcat.c:21: 	src_len = ft_strlen(src);
	.loc 1 21 12 view .LVU10
	call	ft_strlen@PLT	#
.LVL2:
# ft_strlcat.c:22: 	dst_len = ft_strlen(dst);
	.loc 1 22 12 view .LVU11
	movq	%r13, %rdi	# dst,
# ft_strlcat.c:21: 	src_len = ft_strlen(src);
	.loc 1 21 12 view .LVU12
	movq	%rax, %r14	# tmp99, src_len
.LVL3:
	.loc 1 22 2 is_stmt 1 view .LVU13
# ft_strlcat.c:22: 	dst_len = ft_strlen(dst);
	.loc 1 22 12 is_stmt 0 view .LVU14
	call	ft_strlen@PLT	#
.LVL4:
	.loc 1 23 2 is_stmt 1 view .LVU15
# ft_strlcat.c:24: 		return (src_len + dstsize);
	.loc 1 24 19 is_stmt 0 view .LVU16
	leaq	(%r14,%r12), %rdx	#, <retval>
# ft_strlcat.c:23: 	if (dstsize <= dst_len)
	.loc 1 23 5 view .LVU17
	cmpq	%r12, %rax	# dstsize, dst_len
	jnb	.L1	#,
	.loc 1 26 14 is_stmt 1 view .LVU18
# ft_strlcat.c:26: 	while (*src && (dst_len + 1 < dstsize))
	.loc 1 26 9 is_stmt 0 view .LVU19
	movzbl	(%rbx), %edi	# *src_11(D), _2
# ft_strlcat.c:26: 	while (*src && (dst_len + 1 < dstsize))
	.loc 1 26 14 view .LVU20
	testb	%dil, %dil	# _2
	je	.L6	#,
# ft_strlcat.c:26: 	while (*src && (dst_len + 1 < dstsize))
	.loc 1 26 9 view .LVU21
	subq	%rax, %rbx	# dst_len, src
.LVL5:
# ft_strlcat.c:26: 	while (*src && (dst_len + 1 < dstsize))
	.loc 1 26 26 discriminator 1 view .LVU22
	leaq	1(%rax), %rcx	#, ivtmp.9
# ft_strlcat.c:26: 	while (*src && (dst_len + 1 < dstsize))
	.loc 1 26 9 view .LVU23
	movq	%rbx, %rsi	# src, tmp94
# ft_strlcat.c:26: 	while (*src && (dst_len + 1 < dstsize))
	.loc 1 26 14 discriminator 1 view .LVU24
	cmpq	%r12, %rcx	# dstsize, ivtmp.9
	jb	.L4	#,
	jmp	.L6	#
.LVL6:
	.p2align 4,,10
	.p2align 3
.L13:
	.loc 1 26 14 discriminator 1 view .LVU25
	leaq	1(%rcx), %r8	#, ivtmp.9
	cmpq	%r12, %r8	# dstsize, ivtmp.9
	jnb	.L3	#,
	.loc 1 26 14 discriminator 1 view .LVU26
	movq	%r8, %rcx	# ivtmp.9, ivtmp.9
.LVL7:
.L4:
	.loc 1 28 3 is_stmt 1 view .LVU27
# ft_strlcat.c:28: 		dst[dst_len++] = *src;
	.loc 1 28 18 is_stmt 0 view .LVU28
	movb	%dil, -1(%r13,%rcx)	# _2, MEM[(char *)dst_14(D) + -1B + ivtmp.9_18 * 1]
	.loc 1 29 3 is_stmt 1 view .LVU29
	.loc 1 26 14 view .LVU30
# ft_strlcat.c:26: 	while (*src && (dst_len + 1 < dstsize))
	.loc 1 26 9 is_stmt 0 view .LVU31
	movzbl	(%rsi,%rcx), %edi	# MEM[(const char *)_38 + ivtmp.9_18 * 1], _2
# ft_strlcat.c:26: 	while (*src && (dst_len + 1 < dstsize))
	.loc 1 26 14 view .LVU32
	testb	%dil, %dil	# _2
	jne	.L13	#,
.L3:
	.loc 1 31 2 is_stmt 1 view .LVU33
# ft_strlcat.c:31: 	dst[dst_len] = '\0';
	.loc 1 31 15 is_stmt 0 view .LVU34
	movb	$0, 0(%r13,%rcx)	#, *_4
	.loc 1 32 2 is_stmt 1 view .LVU35
# ft_strlcat.c:32: 	return (dst_len_base + src_len);
	.loc 1 32 23 is_stmt 0 view .LVU36
	leaq	(%r14,%rax), %rdx	#, <retval>
.LVL8:
.L1:
# ft_strlcat.c:33: }
	.loc 1 33 1 view .LVU37
	popq	%rbx	#
	movq	%rdx, %rax	# <retval>,
	popq	%r12	#
.LVL9:
	.loc 1 33 1 view .LVU38
	popq	%r13	#
.LVL10:
	.loc 1 33 1 view .LVU39
	popq	%r14	#
.LVL11:
	.loc 1 33 1 view .LVU40
	popq	%rbp	#
	.cfi_remember_state
	.cfi_def_cfa 7, 8
	ret	
.LVL12:
	.p2align 4,,10
	.p2align 3
.L6:
	.cfi_restore_state
# ft_strlcat.c:22: 	dst_len = ft_strlen(dst);
	.loc 1 22 12 view .LVU41
	movq	%rax, %rcx	# dst_len, ivtmp.9
	jmp	.L3	#
	.cfi_endproc
.LFE51:
	.size	ft_strlcat, .-ft_strlcat
.Letext0:
	.file 2 "/usr/lib/gcc/x86_64-linux-gnu/13/include/stddef.h"
	.file 3 "../includes/libft.h"
	.section	.note.GNU-stack,"",@progbits
	.section	.note.gnu.property,"a"
	.align 8
	.long	1f - 0f
	.long	4f - 1f
	.long	5
0:
	.string	"GNU"
1:
	.align 8
	.long	0xc0000002
	.long	3f - 2f
2:
	.long	0x3
3:
	.align 8
4:
ft_toupper.o/   0           0     0     644     7076      `
	.file	"ft_toupper.c"
# GNU C17 (Ubuntu 13.2.0-23ubuntu4) version 13.2.0 (x86_64-linux-gnu)
#	compiled by GNU C version 13.2.0, GMP version 6.3.0, MPFR version 4.2.1, MPC version 1.3.1, isl version isl-0.26-GMP

# GGC heuristics: --param ggc-min-expand=100 --param ggc-min-heapsize=131072
# options passed: -march=skylake -mmmx -mpopcnt -msse -msse2 -msse3 -mssse3 -msse4.1 -msse4.2 -mavx -mno-sse4a -mno-fma4 -mno-xop -mfma -mno-avx512f -mbmi -mbmi2 -maes -mpclmul -mno-avx512vl -mno-avx512bw -mno-avx512dq -mno-avx512cd -mno-avx512er -mno-avx512pf -mno-avx512vbmi -mno-avx512ifma -mno-avx5124vnniw -mno-avx5124fmaps -mno-avx512vpopcntdq -mno-avx512vbmi2 -mno-gfni -mno-vpclmulqdq -mno-avx512vnni -mno-avx512bitalg -mno-avx512bf16 -mno-avx512vp2intersect -mno-3dnow -madx -mabm -mno-cldemote -mclflushopt -mno-clwb -mno-clzero -mcx16 -mno-enqcmd -mf16c -mfsgsbase -mfxsr -mhle -msahf -mno-lwp -mlzcnt -mmovbe -mno-movdir64b -mno-movdiri -mno-mwaitx -mno-pconfig -mno-pku -mno-prefetchwt1 -mprfchw -mno-ptwrite -mno-rdpid -mrdrnd -mrdseed -mrtm -mno-serialize -msgx -mno-sha -mno-shstk -mno-tbm -mno-tsxldtrk -mno-vaes -mno-waitpkg -mno-wbnoinvd -mxsave -mxsavec -mxsaveopt -mxsaves -mno-amx-tile -mno-amx-int8 -mno-amx-bf16 -mno-uintr -mno-hreset -mno-kl -mno-widekl -mno-avxvnni -mno-avx512fp16 -mno-avxifma -mno-avxvnniint8 -mno-avxneconvert -mno-cmpccxadd -mno-amx-fp16 -mno-prefetchi -mno-raoint -mno-amx-complex --param=l1-cache-size=32 --param=l1-cache-line-size=64 --param=l2-cache-size=16384 -mtune=skylake -mavx2 -g -Ofast -p -fasynchronous-unwind-tables -fstack-protector-strong -fstack-clash-protection -fcf-protection
	.text
.Ltext0:
	.file 0 "/home/fabi/42/cub3D/libft" "ft_toupper.c"
	.p2align 4
	.globl	ft_toupper
	.type	ft_toupper, @function
ft_toupper:
.LVL0:
.LFB0:
	.file 1 "ft_toupper.c"
	.loc 1 14 1 view -0
	.cfi_startproc
	.loc 1 14 1 is_stmt 0 view .LVU1
	endbr64	
	pushq	%rbp	#
	.cfi_def_cfa_offset 16
	.cfi_offset 6, -16
	movq	%rsp, %rbp	#,
	.cfi_def_cfa_register 6
1:	call	*mcount@GOTPCREL(%rip)
# ft_toupper.c:14: {
	.loc 1 14 1 view .LVU2
	.loc 1 15 2 is_stmt 1 view .LVU3
# ft_toupper.c:15: 	if (c <= 122 && c >= 97)
	.loc 1 15 15 is_stmt 0 view .LVU4
	leal	-97(%rdi), %ecx	#, tmp86
# ft_toupper.c:14: {
	.loc 1 14 1 view .LVU5
	movl	%edi, %eax	# tmp90, c
# ft_toupper.c:16: 		c -= 32;
	.loc 1 16 5 view .LVU6
	leal	-32(%rdi), %edx	#, tmp88
# ft_toupper.c:18: }
	.loc 1 18 1 view .LVU7
	popq	%rbp	#
	.cfi_def_cfa 7, 8
# ft_toupper.c:16: 		c -= 32;
	.loc 1 16 5 view .LVU8
	cmpl	$26, %ecx	#, tmp86
	cmovb	%edx, %eax	# tmp88,, c
.LVL1:
	.loc 1 17 2 is_stmt 1 view .LVU9
# ft_toupper.c:18: }
	.loc 1 18 1 is_stmt 0 view .LVU10
	ret	
	.cfi_endproc
.LFE0:
	.size	ft_toupper, .-ft_toupper
.Letext0:
	.section	.note.GNU-stack,"",@progbits
	.section	.note.gnu.property,"a"
	.align 8
	.long	1f - 0f
	.long	4f - 1f
	.long	5
0:
	.string	"GNU"
1:
	.align 8
	.long	0xc0000002
	.long	3f - 2f
2:
	.long	0x3
3:
	.align 8
4:
ft_tolower.o/   0           0     0     644     11857     `
	.file	"ft_tolower.c"
# GNU C17 (Ubuntu 13.2.0-23ubuntu4) version 13.2.0 (x86_64-linux-gnu)
#	compiled by GNU C version 13.2.0, GMP version 6.3.0, MPFR version 4.2.1, MPC version 1.3.1, isl version isl-0.26-GMP

# GGC heuristics: --param ggc-min-expand=100 --param ggc-min-heapsize=131072
# options passed: -march=skylake -mmmx -mpopcnt -msse -msse2 -msse3 -mssse3 -msse4.1 -msse4.2 -mavx -mno-sse4a -mno-fma4 -mno-xop -mfma -mno-avx512f -mbmi -mbmi2 -maes -mpclmul -mno-avx512vl -mno-avx512bw -mno-avx512dq -mno-avx512cd -mno-avx512er -mno-avx512pf -mno-avx512vbmi -mno-avx512ifma -mno-avx5124vnniw -mno-avx5124fmaps -mno-avx512vpopcntdq -mno-avx512vbmi2 -mno-gfni -mno-vpclmulqdq -mno-avx512vnni -mno-avx512bitalg -mno-avx512bf16 -mno-avx512vp2intersect -mno-3dnow -madx -mabm -mno-cldemote -mclflushopt -mno-clwb -mno-clzero -mcx16 -mno-enqcmd -mf16c -mfsgsbase -mfxsr -mhle -msahf -mno-lwp -mlzcnt -mmovbe -mno-movdir64b -mno-movdiri -mno-mwaitx -mno-pconfig -mno-pku -mno-prefetchwt1 -mprfchw -mno-ptwrite -mno-rdpid -mrdrnd -mrdseed -mrtm -mno-serialize -msgx -mno-sha -mno-shstk -mno-tbm -mno-tsxldtrk -mno-vaes -mno-waitpkg -mno-wbnoinvd -mxsave -mxsavec -mxsaveopt -mxsaves -mno-amx-tile -mno-amx-int8 -mno-amx-bf16 -mno-uintr -mno-hreset -mno-kl -mno-widekl -mno-avxvnni -mno-avx512fp16 -mno-avxifma -mno-avxvnniint8 -mno-avxneconvert -mno-cmpccxadd -mno-amx-fp16 -mno-prefetchi -mno-raoint -mno-amx-complex --param=l1-cache-size=32 --param=l1-cache-line-size=64 --param=l2-cache-size=16384 -mtune=skylake -mavx2 -g -Ofast -p -fasynchronous-unwind-tables -fstack-protector-strong -fstack-clash-protection -fcf-protection
	.text
.Ltext0:
	.file 0 "/home/fabi/42/cub3D/libft" "ft_tolower.c"
	.p2align 4
	.globl	ft_tolower
	.type	ft_tolower, @function
ft_tolower:
.LVL0:
.LFB0:
	.file 1 "ft_tolower.c"
	.loc 1 14 1 view -0
	.cfi_startproc
	.loc 1 14 1 is_stmt 0 view .LVU1
	endbr64	
	pushq	%rbp	#
	.cfi_def_cfa_offset 16
	.cfi_offset 6, -16
	movq	%rsp, %rbp	#,
	.cfi_def_cfa_register 6
1:	call	*mcount@GOTPCREL(%rip)
# ft_tolower.c:14: {
	.loc 1 14 1 view .LVU2
	.loc 1 15 2 is_stmt 1 view .LVU3
# ft_tolower.c:15: 	if (c <= 90 && c >= 65)
	.loc 1 15 14 is_stmt 0 view .LVU4
	leal	-65(%rdi), %ecx	#, tmp86
# ft_tolower.c:14: {
	.loc 1 14 1 view .LVU5
	movl	%edi, %eax	# tmp90, c
# ft_tolower.c:16: 		c += 32;
	.loc 1 16 5 view .LVU6
	leal	32(%rdi), %edx	#, tmp88
# ft_tolower.c:18: }
	.loc 1 18 1 view .LVU7
	popq	%rbp	#
	.cfi_def_cfa 7, 8
# ft_tolower.c:16: 		c += 32;
	.loc 1 16 5 view .LVU8
	cmpl	$26, %ecx	#, tmp86
	cmovb	%edx, %eax	# tmp88,, c
.LVL1:
	.loc 1 17 2 is_stmt 1 view .LVU9
# ft_tolower.c:18: }
	.loc 1 18 1 is_stmt 0 view .LVU10
	ret	
	.cfi_endproc
.LFE0:
	.size	ft_tolower, .-ft_tolower
	.p2align 4
	.globl	ft_strtolower
	.type	ft_strtolower, @function
ft_strtolower:
.LVL2:
.LFB1:
	.loc 1 21 1 is_stmt 1 view -0
	.cfi_startproc
	.loc 1 21 1 is_stmt 0 view .LVU12
	endbr64	
	pushq	%rbp	#
	.cfi_def_cfa_offset 16
	.cfi_offset 6, -16
	movq	%rsp, %rbp	#,
	.cfi_def_cfa_register 6
1:	call	*mcount@GOTPCREL(%rip)
# ft_tolower.c:21: {
	.loc 1 21 1 view .LVU13
	.loc 1 22 2 is_stmt 1 view .LVU14
# ft_tolower.c:22: 	if (!str)
	.loc 1 22 5 is_stmt 0 view .LVU15
	testq	%rdi, %rdi	# str
	jne	.L17	#,
	jmp	.L16	#
	.p2align 4,,10
	.p2align 3
.L9:
	.loc 1 26 3 is_stmt 1 view .LVU16
.LVL3:
.LBB4:
.LBI4:
	.loc 1 13 5 view .LVU17
.LBB5:
	.loc 1 15 2 view .LVU18
# ft_tolower.c:15: 	if (c <= 90 && c >= 65)
	.loc 1 15 14 is_stmt 0 view .LVU19
	movsbl	%al, %edx	# _5, _5
.LVL4:
	.loc 1 15 14 view .LVU20
	subl	$65, %edx	#, tmp90
.LVL5:
# ft_tolower.c:15: 	if (c <= 90 && c >= 65)
	.loc 1 15 5 view .LVU21
	cmpl	$25, %edx	#, tmp90
	ja	.L7	#,
	.loc 1 16 3 is_stmt 1 view .LVU22
.LVL6:
	.loc 1 17 2 view .LVU23
.LBE5:
.LBE4:
# ft_tolower.c:26: 		*str = ft_tolower(*str);
	.loc 1 26 8 is_stmt 0 discriminator 1 view .LVU24
	addl	$32, %eax	#, tmp91
.L7:
.LBB7:
.LBB6:
	.loc 1 17 2 is_stmt 1 view .LVU25
.LBE6:
.LBE7:
# ft_tolower.c:26: 		*str = ft_tolower(*str);
	.loc 1 26 8 is_stmt 0 discriminator 1 view .LVU26
	movb	%al, (%rdi)	# _5, MEM[(char *)str_4]
	.loc 1 27 3 is_stmt 1 view .LVU27
# ft_tolower.c:27: 		str++;
	.loc 1 27 6 is_stmt 0 view .LVU28
	incq	%rdi	# str
.LVL7:
.L17:
	.loc 1 24 9 is_stmt 1 view .LVU29
	movzbl	(%rdi), %eax	#* str, _5
	testb	%al, %al	# _5
	jne	.L9	#,
.L16:
# ft_tolower.c:29: }
	.loc 1 29 1 is_stmt 0 view .LVU30
	popq	%rbp	#
	.cfi_def_cfa 7, 8
	ret	
	.cfi_endproc
.LFE1:
	.size	ft_strtolower, .-ft_strtolower
.Letext0:
	.section	.note.GNU-stack,"",@progbits
	.section	.note.gnu.property,"a"
	.align 8
	.long	1f - 0f
	.long	4f - 1f
	.long	5
0:
	.string	"GNU"
1:
	.align 8
	.long	0xc0000002
	.long	3f - 2f
2:
	.long	0x3
3:
	.align 8
4:

ft_strchr.o/    0           0     0     644     14902     `
	.file	"ft_strchr.c"
# GNU C17 (Ubuntu 13.2.0-23ubuntu4) version 13.2.0 (x86_64-linux-gnu)
#	compiled by GNU C version 13.2.0, GMP version 6.3.0, MPFR version 4.2.1, MPC version 1.3.1, isl version isl-0.26-GMP

# GGC heuristics: --param ggc-min-expand=100 --param ggc-min-heapsize=131072
# options passed: -march=skylake -mmmx -mpopcnt -msse -msse2 -msse3 -mssse3 -msse4.1 -msse4.2 -mavx -mno-sse4a -mno-fma4 -mno-xop -mfma -mno-avx512f -mbmi -mbmi2 -maes -mpclmul -mno-avx512vl -mno-avx512bw -mno-avx512dq -mno-avx512cd -mno-avx512er -mno-avx512pf -mno-avx512vbmi -mno-avx512ifma -mno-avx5124vnniw -mno-avx5124fmaps -mno-avx512vpopcntdq -mno-avx512vbmi2 -mno-gfni -mno-vpclmulqdq -mno-avx512vnni -mno-avx512bitalg -mno-avx512bf16 -mno-avx512vp2intersect -mno-3dnow -madx -mabm -mno-cldemote -mclflushopt -mno-clwb -mno-clzero -mcx16 -mno-enqcmd -mf16c -mfsgsbase -mfxsr -mhle -msahf -mno-lwp -mlzcnt -mmovbe -mno-movdir64b -mno-movdiri -mno-mwaitx -mno-pconfig -mno-pku -mno-prefetchwt1 -mprfchw -mno-ptwrite -mno-rdpid -mrdrnd -mrdseed -mrtm -mno-serialize -msgx -mno-sha -mno-shstk -mno-tbm -mno-tsxldtrk -mno-vaes -mno-waitpkg -mno-wbnoinvd -mxsave -mxsavec -mxsaveopt -mxsaves -mno-amx-tile -mno-amx-int8 -mno-amx-bf16 -mno-uintr -mno-hreset -mno-kl -mno-widekl -mno-avxvnni -mno-avx512fp16 -mno-avxifma -mno-avxvnniint8 -mno-avxneconvert -mno-cmpccxadd -mno-amx-fp16 -mno-prefetchi -mno-raoint -mno-amx-complex --param=l1-cache-size=32 --param=l1-cache-line-size=64 --param=l2-cache-size=16384 -mtune=skylake -mavx2 -g -Ofast -p -fasynchronous-unwind-tables -fstack-protector-strong -fstack-clash-protection -fcf-protection
	.text
.Ltext0:
	.file 0 "/home/fabi/42/cub3D/libft" "ft_strchr.c"
	.p2align 4
	.globl	ft_strchr
	.type	ft_strchr, @function
ft_strchr:
.LVL0:
.LFB51:
	.file 1 "ft_strchr.c"
	.loc 1 16 1 view -0
	.cfi_startproc
	.loc 1 16 1 is_stmt 0 view .LVU1
	endbr64	
	pushq	%rbp	#
	.cfi_def_cfa_offset 16
	.cfi_offset 6, -16
	movq	%rsp, %rbp	#,
	.cfi_def_cfa_register 6
1:	call	*mcount@GOTPCREL(%rip)
# ft_strchr.c:16: {
	.loc 1 16 1 view .LVU2
	.loc 1 17 2 is_stmt 1 view .LVU3
# ft_strchr.c:17: 	if (!s)
	.loc 1 17 5 is_stmt 0 view .LVU4
	testq	%rdi, %rdi	# s
	je	.L5	#,
	.loc 1 19 23 is_stmt 1 view .LVU5
# ft_strchr.c:19: 	while (*s != (char)c && *s)
	.loc 1 19 9 is_stmt 0 view .LVU6
	movzbl	(%rdi), %eax	# *s_8(D), _1
# ft_strchr.c:19: 	while (*s != (char)c && *s)
	.loc 1 19 12 view .LVU7
	movl	%esi, %edx	# c, _12
# ft_strchr.c:19: 	while (*s != (char)c && *s)
	.loc 1 19 23 view .LVU8
	cmpb	%sil, %al	# c, _1
	jne	.L3	#,
	jmp	.L6	#
	.p2align 4,,10
	.p2align 3
.L4:
	.loc 1 20 3 is_stmt 1 view .LVU9
# ft_strchr.c:19: 	while (*s != (char)c && *s)
	.loc 1 19 9 is_stmt 0 view .LVU10
	movzbl	1(%rdi), %eax	# MEM[(const char *)s_11], _1
# ft_strchr.c:20: 		s++;
	.loc 1 20 4 view .LVU11
	incq	%rdi	# s
.LVL1:
	.loc 1 19 23 is_stmt 1 view .LVU12
	cmpb	%dl, %al	# _12, _1
	je	.L6	#,
.L3:
# ft_strchr.c:19: 	while (*s != (char)c && *s)
	.loc 1 19 23 is_stmt 0 discriminator 1 view .LVU13
	testb	%al, %al	# _1
	jne	.L4	#,
	.loc 1 21 2 is_stmt 1 view .LVU14
# ft_strchr.c:18: 		return (NULL);
	.loc 1 18 10 is_stmt 0 view .LVU15
	xorl	%eax, %eax	# tmp94
	testb	%sil, %sil	# c
# ft_strchr.c:24: }
	.loc 1 24 1 view .LVU16
	popq	%rbp	#
	.cfi_remember_state
	.cfi_def_cfa 7, 8
# ft_strchr.c:18: 		return (NULL);
	.loc 1 18 10 view .LVU17
	cmove	%rdi, %rax	# s,, <retval>
# ft_strchr.c:24: }
	.loc 1 24 1 view .LVU18
	ret	
	.p2align 4,,10
	.p2align 3
.L6:
	.cfi_restore_state
# ft_strchr.c:22: 		return ((char *)s);
	.loc 1 22 11 view .LVU19
	movq	%rdi, %rax	# s, <retval>
# ft_strchr.c:24: }
	.loc 1 24 1 view .LVU20
	popq	%rbp	#
	.cfi_remember_state
	.cfi_def_cfa 7, 8
	ret	
.L5:
	.cfi_restore_state
# ft_strchr.c:18: 		return (NULL);
	.loc 1 18 10 view .LVU21
	xorl	%eax, %eax	# <retval>
# ft_strchr.c:24: }
	.loc 1 24 1 view .LVU22
	popq	%rbp	#
	.cfi_def_cfa 7, 8
	ret	
	.cfi_endproc
.LFE51:
	.size	ft_strchr, .-ft_strchr
	.p2align 4
	.globl	ft_strchr_fn
	.type	ft_strchr_fn, @function
ft_strchr_fn:
.LVL2:
.LFB52:
	.loc 1 27 1 is_stmt 1 view -0
	.cfi_startproc
	.loc 1 27 1 is_stmt 0 view .LVU24
	endbr64	
	pushq	%rbp	#
	.cfi_def_cfa_offset 16
	.cfi_offset 6, -16
	movq	%rsp, %rbp	#,
	.cfi_def_cfa_register 6
	pushq	%r12	#
	pushq	%rbx	#
	.cfi_offset 12, -24
	.cfi_offset 3, -32
1:	call	*mcount@GOTPCREL(%rip)
# ft_strchr.c:27: {
	.loc 1 27 1 view .LVU25
	.loc 1 28 2 is_stmt 1 view .LVU26
# ft_strchr.c:27: {
	.loc 1 27 1 is_stmt 0 view .LVU27
	movq	%rdi, %rbx	# tmp93, s
	movq	%rsi, %r12	# tmp94, fn
# ft_strchr.c:28: 	if (!s)
	.loc 1 28 5 view .LVU28
	testq	%rdi, %rdi	# s
	jne	.L22	#,
	jmp	.L16	#
.LVL3:
	.p2align 4,,10
	.p2align 3
.L24:
# ft_strchr.c:30: 	while (*s && !fn(*s))
	.loc 1 30 16 discriminator 1 view .LVU29
	call	*%r12	# fn
.LVL4:
# ft_strchr.c:30: 	while (*s && !fn(*s))
	.loc 1 30 12 discriminator 1 view .LVU30
	testb	%al, %al	# tmp95
	jne	.L23	#,
	.loc 1 31 3 is_stmt 1 view .LVU31
# ft_strchr.c:31: 		s++;
	.loc 1 31 4 is_stmt 0 view .LVU32
	incq	%rbx	# s
.LVL5:
.L22:
	.loc 1 30 12 is_stmt 1 view .LVU33
# ft_strchr.c:30: 	while (*s && !fn(*s))
	.loc 1 30 9 is_stmt 0 view .LVU34
	movsbl	(%rbx), %edi	#* s,
# ft_strchr.c:30: 	while (*s && !fn(*s))
	.loc 1 30 12 view .LVU35
	testb	%dil, %dil	# _1
	jne	.L24	#,
.L14:
	.loc 1 32 2 is_stmt 1 view .LVU36
# ft_strchr.c:32: 	if (fn(*s))
	.loc 1 32 6 is_stmt 0 view .LVU37
	call	*%r12	# fn
.LVL6:
# ft_strchr.c:32: 	if (fn(*s))
	.loc 1 32 5 discriminator 1 view .LVU38
	testb	%al, %al	# tmp96
	je	.L16	#,
# ft_strchr.c:35: }
	.loc 1 35 1 view .LVU39
	movq	%rbx, %rax	# <retval>,
	popq	%rbx	#
.LVL7:
	.loc 1 35 1 view .LVU40
	popq	%r12	#
.LVL8:
	.loc 1 35 1 view .LVU41
	popq	%rbp	#
	.cfi_remember_state
	.cfi_def_cfa 7, 8
	ret	
.LVL9:
	.p2align 4,,10
	.p2align 3
.L16:
	.cfi_restore_state
# ft_strchr.c:29: 		return (NULL);
	.loc 1 29 10 view .LVU42
	xorl	%ebx, %ebx	# <retval>
.LVL10:
# ft_strchr.c:35: }
	.loc 1 35 1 view .LVU43
	movq	%rbx, %rax	# <retval>,
	popq	%rbx	#
	popq	%r12	#
.LVL11:
	.loc 1 35 1 view .LVU44
	popq	%rbp	#
	.cfi_remember_state
	.cfi_def_cfa 7, 8
	ret	
.LVL12:
	.p2align 4,,10
	.p2align 3
.L23:
	.cfi_restore_state
# ft_strchr.c:32: 	if (fn(*s))
	.loc 1 32 9 view .LVU45
	movsbl	(%rbx), %edi	# *s_22,
	jmp	.L14	#
	.cfi_endproc
.LFE52:
	.size	ft_strchr_fn, .-ft_strchr_fn
.Letext0:
	.section	.note.GNU-stack,"",@progbits
	.section	.note.gnu.property,"a"
	.align 8
	.long	1f - 0f
	.long	4f - 1f
	.long	5
0:
	.string	"GNU"
1:
	.align 8
	.long	0xc0000002
	.long	3f - 2f
2:
	.long	0x3
3:
	.align 8
4:
ft_strrchr.o/   0           0     0     644     9755      `
	.file	"ft_strrchr.c"
# GNU C17 (Ubuntu 13.2.0-23ubuntu4) version 13.2.0 (x86_64-linux-gnu)
#	compiled by GNU C version 13.2.0, GMP version 6.3.0, MPFR version 4.2.1, MPC version 1.3.1, isl version isl-0.26-GMP

# GGC heuristics: --param ggc-min-expand=100 --param ggc-min-heapsize=131072
# options passed: -march=skylake -mmmx -mpopcnt -msse -msse2 -msse3 -mssse3 -msse4.1 -msse4.2 -mavx -mno-sse4a -mno-fma4 -mno-xop -mfma -mno-avx512f -mbmi -mbmi2 -maes -mpclmul -mno-avx512vl -mno-avx512bw -mno-avx512dq -mno-avx512cd -mno-avx512er -mno-avx512pf -mno-avx512vbmi -mno-avx512ifma -mno-avx5124vnniw -mno-avx5124fmaps -mno-avx512vpopcntdq -mno-avx512vbmi2 -mno-gfni -mno-vpclmulqdq -mno-avx512vnni -mno-avx512bitalg -mno-avx512bf16 -mno-avx512vp2intersect -mno-3dnow -madx -mabm -mno-cldemote -mclflushopt -mno-clwb -mno-clzero -mcx16 -mno-enqcmd -mf16c -mfsgsbase -mfxsr -mhle -msahf -mno-lwp -mlzcnt -mmovbe -mno-movdir64b -mno-movdiri -mno-mwaitx -mno-pconfig -mno-pku -mno-prefetchwt1 -mprfchw -mno-ptwrite -mno-rdpid -mrdrnd -mrdseed -mrtm -mno-serialize -msgx -mno-sha -mno-shstk -mno-tbm -mno-tsxldtrk -mno-vaes -mno-waitpkg -mno-wbnoinvd -mxsave -mxsavec -mxsaveopt -mxsaves -mno-amx-tile -mno-amx-int8 -mno-amx-bf16 -mno-uintr -mno-hreset -mno-kl -mno-widekl -mno-avxvnni -mno-avx512fp16 -mno-avxifma -mno-avxvnniint8 -mno-avxneconvert -mno-cmpccxadd -mno-amx-fp16 -mno-prefetchi -mno-raoint -mno-amx-complex --param=l1-cache-size=32 --param=l1-cache-line-size=64 --param=l2-cache-size=16384 -mtune=skylake -mavx2 -g -Ofast -p -fasynchronous-unwind-tables -fstack-protector-strong -fstack-clash-protection -fcf-protection
	.text
.Ltext0:
	.file 0 "/home/fabi/42/cub3D/libft" "ft_strrchr.c"
	.p2align 4
	.globl	ft_strrchr
	.type	ft_strrchr, @function
ft_strrchr:
.LVL0:
.LFB0:
	.file 1 "ft_strrchr.c"
	.loc 1 14 1 view -0
	.cfi_startproc
	.loc 1 14 1 is_stmt 0 view .LVU1
	endbr64	
	pushq	%rbp	#
	.cfi_def_cfa_offset 16
	.cfi_offset 6, -16
	movq	%rsp, %rbp	#,
	.cfi_def_cfa_register 6
1:	call	*mcount@GOTPCREL(%rip)
# ft_strrchr.c:14: {
	.loc 1 14 1 view .LVU2
	.loc 1 15 2 is_stmt 1 view .LVU3
	.loc 1 17 2 view .LVU4
.LVL1:
	.loc 1 18 2 view .LVU5
	.loc 1 18 9 view .LVU6
	movzbl	(%rdi), %edx	# *s_8(D), _2
# ft_strrchr.c:20: 	while (*s != (char)c && s != start)
	.loc 1 20 12 is_stmt 0 view .LVU7
	movl	%esi, %ecx	# c, _46
# ft_strrchr.c:18: 	while (*s)
	.loc 1 18 9 view .LVU8
	movq	%rdi, %rax	# s, <retval>
	testb	%dl, %dl	# _2
	je	.L2	#,
.LVL2:
	.p2align 4,,10
	.p2align 3
.L3:
	.loc 1 19 3 is_stmt 1 view .LVU9
# ft_strrchr.c:18: 	while (*s)
	.loc 1 18 9 is_stmt 0 view .LVU10
	movzbl	1(%rax), %edx	# MEM[(const char *)s_14], _2
# ft_strrchr.c:19: 		s++;
	.loc 1 19 4 view .LVU11
	incq	%rax	# <retval>
.LVL3:
	.loc 1 18 9 is_stmt 1 view .LVU12
	testb	%dl, %dl	# _2
	jne	.L3	#,
	.loc 1 20 23 view .LVU13
# ft_strrchr.c:20: 	while (*s != (char)c && s != start)
	.loc 1 20 23 is_stmt 0 discriminator 1 view .LVU14
	cmpq	%rax, %rdi	# <retval>, s
	je	.L2	#,
	testb	%sil, %sil	# c
	jne	.L4	#,
	jmp	.L2	#
	.p2align 4,,10
	.p2align 3
.L20:
	.loc 1 20 23 discriminator 1 view .LVU15
	cmpq	%rax, %rdi	# <retval>, s
	je	.L2	#,
.L4:
	.loc 1 21 3 is_stmt 1 view .LVU16
# ft_strrchr.c:20: 	while (*s != (char)c && s != start)
	.loc 1 20 9 is_stmt 0 view .LVU17
	movzbl	-1(%rax), %edx	# MEM[(const char *)s_12], _2
# ft_strrchr.c:21: 		s--;
	.loc 1 21 4 view .LVU18
	decq	%rax	# <retval>
.LVL4:
	.loc 1 20 23 is_stmt 1 view .LVU19
# ft_strrchr.c:20: 	while (*s != (char)c && s != start)
	.loc 1 20 23 is_stmt 0 discriminator 1 view .LVU20
	cmpb	%cl, %dl	# _46, _2
	jne	.L20	#,
.L2:
.LVL5:
	.loc 1 22 2 is_stmt 1 view .LVU21
# ft_strrchr.c:24: 	return (0);
	.loc 1 24 9 is_stmt 0 view .LVU22
	cmpb	%sil, %dl	# c, _2
	movl	$0, %edx	#, tmp102
# ft_strrchr.c:25: }
	.loc 1 25 1 view .LVU23
	popq	%rbp	#
	.cfi_def_cfa 7, 8
# ft_strrchr.c:24: 	return (0);
	.loc 1 24 9 view .LVU24
	cmovne	%rdx, %rax	# <retval>,, tmp102, <retval>
# ft_strrchr.c:25: }
	.loc 1 25 1 view .LVU25
	ret	
	.cfi_endproc
.LFE0:
	.size	ft_strrchr, .-ft_strrchr
.Letext0:
	.section	.note.GNU-stack,"",@progbits
	.section	.note.gnu.property,"a"
	.align 8
	.long	1f - 0f
	.long	4f - 1f
	.long	5
0:
	.string	"GNU"
1:
	.align 8
	.long	0xc0000002
	.long	3f - 2f
2:
	.long	0x3
3:
	.align 8
4:

ft_strncmp.o/   0           0     0     644     14928     `
	.file	"ft_strncmp.c"
# GNU C17 (Ubuntu 13.2.0-23ubuntu4) version 13.2.0 (x86_64-linux-gnu)
#	compiled by GNU C version 13.2.0, GMP version 6.3.0, MPFR version 4.2.1, MPC version 1.3.1, isl version isl-0.26-GMP

# GGC heuristics: --param ggc-min-expand=100 --param ggc-min-heapsize=131072
# options passed: -march=skylake -mmmx -mpopcnt -msse -msse2 -msse3 -mssse3 -msse4.1 -msse4.2 -mavx -mno-sse4a -mno-fma4 -mno-xop -mfma -mno-avx512f -mbmi -mbmi2 -maes -mpclmul -mno-avx512vl -mno-avx512bw -mno-avx512dq -mno-avx512cd -mno-avx512er -mno-avx512pf -mno-avx512vbmi -mno-avx512ifma -mno-avx5124vnniw -mno-avx5124fmaps -mno-avx512vpopcntdq -mno-avx512vbmi2 -mno-gfni -mno-vpclmulqdq -mno-avx512vnni -mno-avx512bitalg -mno-avx512bf16 -mno-avx512vp2intersect -mno-3dnow -madx -mabm -mno-cldemote -mclflushopt -mno-clwb -mno-clzero -mcx16 -mno-enqcmd -mf16c -mfsgsbase -mfxsr -mhle -msahf -mno-lwp -mlzcnt -mmovbe -mno-movdir64b -mno-movdiri -mno-mwaitx -mno-pconfig -mno-pku -mno-prefetchwt1 -mprfchw -mno-ptwrite -mno-rdpid -mrdrnd -mrdseed -mrtm -mno-serialize -msgx -mno-sha -mno-shstk -mno-tbm -mno-tsxldtrk -mno-vaes -mno-waitpkg -mno-wbnoinvd -mxsave -mxsavec -mxsaveopt -mxsaves -mno-amx-tile -mno-amx-int8 -mno-amx-bf16 -mno-uintr -mno-hreset -mno-kl -mno-widekl -mno-avxvnni -mno-avx512fp16 -mno-avxifma -mno-avxvnniint8 -mno-avxneconvert -mno-cmpccxadd -mno-amx-fp16 -mno-prefetchi -mno-raoint -mno-amx-complex --param=l1-cache-size=32 --param=l1-cache-line-size=64 --param=l2-cache-size=16384 -mtune=skylake -mavx2 -g -Ofast -p -fasynchronous-unwind-tables -fstack-protector-strong -fstack-clash-protection -fcf-protection
	.text
.Ltext0:
	.file 0 "/home/fabi/42/cub3D/libft" "ft_strncmp.c"
	.p2align 4
	.globl	ft_strncmp
	.type	ft_strncmp, @function
ft_strncmp:
.LVL0:
.LFB51:
	.file 1 "ft_strncmp.c"
	.loc 1 16 1 view -0
	.cfi_startproc
	.loc 1 16 1 is_stmt 0 view .LVU1
	endbr64	
	pushq	%rbp	#
	.cfi_def_cfa_offset 16
	.cfi_offset 6, -16
	movq	%rsp, %rbp	#,
	.cfi_def_cfa_register 6
1:	call	*mcount@GOTPCREL(%rip)
# ft_strncmp.c:16: {
	.loc 1 16 1 view .LVU2
	.loc 1 17 2 is_stmt 1 view .LVU3
	.loc 1 18 2 view .LVU4
	.loc 1 20 2 view .LVU5
.LVL1:
	.loc 1 21 2 view .LVU6
	.loc 1 22 2 view .LVU7
	.loc 1 22 29 view .LVU8
	testq	%rdx, %rdx	# n
	jne	.L2	#,
	jmp	.L7	#
.LVL2:
	.p2align 4,,10
	.p2align 3
.L16:
# ft_strncmp.c:22: 	while (n && *str1 && *str2 && !(*str1 - *str2))
	.loc 1 22 23 is_stmt 0 discriminator 2 view .LVU9
	movzbl	(%rsi), %ecx	# MEM[(const unsigned char *)str2_29], _2
# ft_strncmp.c:22: 	while (n && *str1 && *str2 && !(*str1 - *str2))
	.loc 1 22 29 discriminator 3 view .LVU10
	cmpb	%cl, %al	# _2, _1
	jne	.L4	#,
	.loc 1 22 29 discriminator 3 view .LVU11
	testb	%cl, %cl	# _2
	je	.L4	#,
	.loc 1 24 3 is_stmt 1 view .LVU12
# ft_strncmp.c:24: 		str1++;
	.loc 1 24 7 is_stmt 0 view .LVU13
	incq	%rdi	# s1
.LVL3:
	.loc 1 25 3 is_stmt 1 view .LVU14
# ft_strncmp.c:25: 		str2++;
	.loc 1 25 7 is_stmt 0 view .LVU15
	incq	%rsi	# s2
.LVL4:
	.loc 1 26 3 is_stmt 1 view .LVU16
	.loc 1 22 29 view .LVU17
	decq	%rdx	# n
.LVL5:
	.loc 1 22 29 is_stmt 0 view .LVU18
	je	.L7	#,
.L2:
# ft_strncmp.c:22: 	while (n && *str1 && *str2 && !(*str1 - *str2))
	.loc 1 22 14 discriminator 1 view .LVU19
	movzbl	(%rdi), %eax	# MEM[(const unsigned char *)str1_27], _1
# ft_strncmp.c:22: 	while (n && *str1 && *str2 && !(*str1 - *str2))
	.loc 1 22 11 discriminator 1 view .LVU20
	testb	%al, %al	# _1
	jne	.L16	#,
.L4:
	.loc 1 28 2 is_stmt 1 view .LVU21
	.loc 1 29 3 view .LVU22
# ft_strncmp.c:29: 		return (*str1 - *str2);
	.loc 1 29 11 is_stmt 0 view .LVU23
	movzbl	(%rdi), %eax	# *str1_27, *str1_27
# ft_strncmp.c:29: 		return (*str1 - *str2);
	.loc 1 29 19 view .LVU24
	movzbl	(%rsi), %edx	# *str2_29, *str2_29
.LVL6:
# ft_strncmp.c:31: }
	.loc 1 31 1 view .LVU25
	popq	%rbp	#
	.cfi_remember_state
	.cfi_def_cfa 7, 8
# ft_strncmp.c:29: 		return (*str1 - *str2);
	.loc 1 29 17 view .LVU26
	subl	%edx, %eax	# *str2_29, <retval>
# ft_strncmp.c:31: }
	.loc 1 31 1 view .LVU27
	ret	
.LVL7:
	.p2align 4,,10
	.p2align 3
.L7:
	.cfi_restore_state
# ft_strncmp.c:30: 	return (0);
	.loc 1 30 9 view .LVU28
	xorl	%eax, %eax	# <retval>
# ft_strncmp.c:31: }
	.loc 1 31 1 view .LVU29
	popq	%rbp	#
	.cfi_def_cfa 7, 8
	ret	
	.cfi_endproc
.LFE51:
	.size	ft_strncmp, .-ft_strncmp
	.p2align 4
	.globl	ft_strcmp
	.type	ft_strcmp, @function
ft_strcmp:
.LVL8:
.LFB52:
	.loc 1 34 1 is_stmt 1 view -0
	.cfi_startproc
	.loc 1 34 1 is_stmt 0 view .LVU31
	endbr64	
	pushq	%rbp	#
	.cfi_def_cfa_offset 16
	.cfi_offset 6, -16
	movq	%rsp, %rbp	#,
	.cfi_def_cfa_register 6
1:	call	*mcount@GOTPCREL(%rip)
# ft_strncmp.c:34: {
	.loc 1 34 1 view .LVU32
	.loc 1 35 2 is_stmt 1 view .LVU33
	.loc 1 35 9 view .LVU34
	movsbl	(%rdi), %eax	#* s1,
	testb	%al, %al	# _6
	jne	.L21	#,
	jmp	.L18	#
	.p2align 4,,10
	.p2align 3
.L19:
	.loc 1 39 3 view .LVU35
# ft_strncmp.c:35: 	while (*s1)
	.loc 1 35 9 is_stmt 0 view .LVU36
	movsbl	1(%rdi), %eax	#,
# ft_strncmp.c:39: 		s1++;
	.loc 1 39 5 view .LVU37
	incq	%rdi	# s1
.LVL9:
	.loc 1 40 3 is_stmt 1 view .LVU38
# ft_strncmp.c:40: 		s2++;
	.loc 1 40 5 is_stmt 0 view .LVU39
	incq	%rsi	# s2
.LVL10:
	.loc 1 35 9 is_stmt 1 view .LVU40
	testb	%al, %al	# _6
	je	.L18	#,
.L21:
	.loc 1 37 3 view .LVU41
# ft_strncmp.c:37: 		if (*s1 != *s2)
	.loc 1 37 14 is_stmt 0 view .LVU42
	movsbl	(%rsi), %edx	# MEM[(const char *)s2_22],
# ft_strncmp.c:37: 		if (*s1 != *s2)
	.loc 1 37 6 view .LVU43
	cmpb	%al, %dl	# _6, _2
	je	.L19	#,
	.loc 1 38 4 is_stmt 1 view .LVU44
# ft_strncmp.c:38: 			return (*s1 - *s2);
	.loc 1 38 16 is_stmt 0 view .LVU45
	subl	%edx, %eax	# _2, <retval>
# ft_strncmp.c:43: }
	.loc 1 43 1 view .LVU46
	popq	%rbp	#
	.cfi_remember_state
	.cfi_def_cfa 7, 8
	ret	
	.p2align 4,,10
	.p2align 3
.L18:
	.cfi_restore_state
	.loc 1 42 2 is_stmt 1 view .LVU47
# ft_strncmp.c:42: 	return (*s1 - *s2);
	.loc 1 42 16 is_stmt 0 view .LVU48
	movsbl	(%rsi), %eax	# *s2_23, *s2_23
# ft_strncmp.c:43: }
	.loc 1 43 1 view .LVU49
	popq	%rbp	#
	.cfi_def_cfa 7, 8
# ft_strncmp.c:42: 	return (*s1 - *s2);
	.loc 1 42 14 view .LVU50
	negl	%eax	# <retval>
# ft_strncmp.c:43: }
	.loc 1 43 1 view .LVU51
	ret	
	.cfi_endproc
.LFE52:
	.size	ft_strcmp, .-ft_strcmp
.Letext0:
	.file 2 "/usr/lib/gcc/x86_64-linux-gnu/13/include/stddef.h"
	.section	.note.GNU-stack,"",@progbits
	.section	.note.gnu.property,"a"
	.align 8
	.long	1f - 0f
	.long	4f - 1f
	.long	5
0:
	.string	"GNU"
1:
	.align 8
	.long	0xc0000002
	.long	3f - 2f
2:
	.long	0x3
3:
	.align 8
4:
ft_memchr.o/    0           0     0     644     11767     `
	.file	"ft_memchr.c"
# GNU C17 (Ubuntu 13.2.0-23ubuntu4) version 13.2.0 (x86_64-linux-gnu)
#	compiled by GNU C version 13.2.0, GMP version 6.3.0, MPFR version 4.2.1, MPC version 1.3.1, isl version isl-0.26-GMP

# GGC heuristics: --param ggc-min-expand=100 --param ggc-min-heapsize=131072
# options passed: -march=skylake -mmmx -mpopcnt -msse -msse2 -msse3 -mssse3 -msse4.1 -msse4.2 -mavx -mno-sse4a -mno-fma4 -mno-xop -mfma -mno-avx512f -mbmi -mbmi2 -maes -mpclmul -mno-avx512vl -mno-avx512bw -mno-avx512dq -mno-avx512cd -mno-avx512er -mno-avx512pf -mno-avx512vbmi -mno-avx512ifma -mno-avx5124vnniw -mno-avx5124fmaps -mno-avx512vpopcntdq -mno-avx512vbmi2 -mno-gfni -mno-vpclmulqdq -mno-avx512vnni -mno-avx512bitalg -mno-avx512bf16 -mno-avx512vp2intersect -mno-3dnow -madx -mabm -mno-cldemote -mclflushopt -mno-clwb -mno-clzero -mcx16 -mno-enqcmd -mf16c -mfsgsbase -mfxsr -mhle -msahf -mno-lwp -mlzcnt -mmovbe -mno-movdir64b -mno-movdiri -mno-mwaitx -mno-pconfig -mno-pku -mno-prefetchwt1 -mprfchw -mno-ptwrite -mno-rdpid -mrdrnd -mrdseed -mrtm -mno-serialize -msgx -mno-sha -mno-shstk -mno-tbm -mno-tsxldtrk -mno-vaes -mno-waitpkg -mno-wbnoinvd -mxsave -mxsavec -mxsaveopt -mxsaves -mno-amx-tile -mno-amx-int8 -mno-amx-bf16 -mno-uintr -mno-hreset -mno-kl -mno-widekl -mno-avxvnni -mno-avx512fp16 -mno-avxifma -mno-avxvnniint8 -mno-avxneconvert -mno-cmpccxadd -mno-amx-fp16 -mno-prefetchi -mno-raoint -mno-amx-complex --param=l1-cache-size=32 --param=l1-cache-line-size=64 --param=l2-cache-size=16384 -mtune=skylake -mavx2 -g -Ofast -p -fasynchronous-unwind-tables -fstack-protector-strong -fstack-clash-protection -fcf-protection
	.text
.Ltext0:
	.file 0 "/home/fabi/42/cub3D/libft" "ft_memchr.c"
	.p2align 4
	.globl	ft_memchr
	.type	ft_memchr, @function
ft_memchr:
.LVL0:
.LFB51:
	.file 1 "ft_memchr.c"
	.loc 1 16 1 view -0
	.cfi_startproc
	.loc 1 16 1 is_stmt 0 view .LVU1
	endbr64	
	pushq	%rbp	#
	.cfi_def_cfa_offset 16
	.cfi_offset 6, -16
	movq	%rsp, %rbp	#,
	.cfi_def_cfa_register 6
1:	call	*mcount@GOTPCREL(%rip)
# ft_memchr.c:16: {
	.loc 1 16 1 view .LVU2
	.loc 1 17 2 is_stmt 1 view .LVU3
	.loc 1 18 2 view .LVU4
	.loc 1 20 2 view .LVU5
.LVL1:
	.loc 1 21 2 view .LVU6
	.loc 1 22 2 view .LVU7
	.loc 1 22 9 view .LVU8
# ft_memchr.c:16: {
	.loc 1 16 1 is_stmt 0 view .LVU9
	movq	%rdi, %rax	# tmp90, s
# ft_memchr.c:22: 	while (n--)
	.loc 1 22 9 view .LVU10
	testq	%rdx, %rdx	# n
	je	.L4	#,
	addq	%rdi, %rdx	# s, _3
.LVL2:
	.loc 1 22 9 view .LVU11
	jmp	.L3	#
.LVL3:
	.p2align 4,,10
	.p2align 3
.L7:
	.loc 1 26 3 is_stmt 1 view .LVU12
# ft_memchr.c:26: 		str++;
	.loc 1 26 6 is_stmt 0 view .LVU13
	incq	%rax	# <retval>
.LVL4:
	.loc 1 22 9 is_stmt 1 view .LVU14
	.loc 1 22 9 is_stmt 0 view .LVU15
	cmpq	%rax, %rdx	# <retval>, _3
	je	.L4	#,
.LVL5:
.L3:
	.loc 1 24 3 is_stmt 1 view .LVU16
# ft_memchr.c:24: 		if (*str == ch)
	.loc 1 24 6 is_stmt 0 view .LVU17
	cmpb	%sil, (%rax)	# ch, MEM[(const unsigned char *)str_15]
	jne	.L7	#,
# ft_memchr.c:29: }
	.loc 1 29 1 view .LVU18
	popq	%rbp	#
	.cfi_remember_state
	.cfi_def_cfa 7, 8
	ret	
.LVL6:
	.p2align 4,,10
	.p2align 3
.L4:
	.cfi_restore_state
# ft_memchr.c:28: 	return (0);
	.loc 1 28 9 view .LVU19
	xorl	%eax, %eax	# <retval>
# ft_memchr.c:29: }
	.loc 1 29 1 view .LVU20
	popq	%rbp	#
	.cfi_def_cfa 7, 8
	ret	
	.cfi_endproc
.LFE51:
	.size	ft_memchr, .-ft_memchr
.Letext0:
	.file 2 "/usr/lib/gcc/x86_64-linux-gnu/13/include/stddef.h"
	.section	.note.GNU-stack,"",@progbits
	.section	.note.gnu.property,"a"
	.align 8
	.long	1f - 0f
	.long	4f - 1f
	.long	5
0:
	.string	"GNU"
1:
	.align 8
	.long	0xc0000002
	.long	3f - 2f
2:
	.long	0x3
3:
	.align 8
4:

ft_memcmp.o/    0           0     0     644     12963     `
	.file	"ft_memcmp.c"
# GNU C17 (Ubuntu 13.2.0-23ubuntu4) version 13.2.0 (x86_64-linux-gnu)
#	compiled by GNU C version 13.2.0, GMP version 6.3.0, MPFR version 4.2.1, MPC version 1.3.1, isl version isl-0.26-GMP

# GGC heuristics: --param ggc-min-expand=100 --param ggc-min-heapsize=131072
# options passed: -march=skylake -mmmx -mpopcnt -msse -msse2 -msse3 -mssse3 -msse4.1 -msse4.2 -mavx -mno-sse4a -mno-fma4 -mno-xop -mfma -mno-avx512f -mbmi -mbmi2 -maes -mpclmul -mno-avx512vl -mno-avx512bw -mno-avx512dq -mno-avx512cd -mno-avx512er -mno-avx512pf -mno-avx512vbmi -mno-avx512ifma -mno-avx5124vnniw -mno-avx5124fmaps -mno-avx512vpopcntdq -mno-avx512vbmi2 -mno-gfni -mno-vpclmulqdq -mno-avx512vnni -mno-avx512bitalg -mno-avx512bf16 -mno-avx512vp2intersect -mno-3dnow -madx -mabm -mno-cldemote -mclflushopt -mno-clwb -mno-clzero -mcx16 -mno-enqcmd -mf16c -mfsgsbase -mfxsr -mhle -msahf -mno-lwp -mlzcnt -mmovbe -mno-movdir64b -mno-movdiri -mno-mwaitx -mno-pconfig -mno-pku -mno-prefetchwt1 -mprfchw -mno-ptwrite -mno-rdpid -mrdrnd -mrdseed -mrtm -mno-serialize -msgx -mno-sha -mno-shstk -mno-tbm -mno-tsxldtrk -mno-vaes -mno-waitpkg -mno-wbnoinvd -mxsave -mxsavec -mxsaveopt -mxsaves -mno-amx-tile -mno-amx-int8 -mno-amx-bf16 -mno-uintr -mno-hreset -mno-kl -mno-widekl -mno-avxvnni -mno-avx512fp16 -mno-avxifma -mno-avxvnniint8 -mno-avxneconvert -mno-cmpccxadd -mno-amx-fp16 -mno-prefetchi -mno-raoint -mno-amx-complex --param=l1-cache-size=32 --param=l1-cache-line-size=64 --param=l2-cache-size=16384 -mtune=skylake -mavx2 -g -Ofast -p -fasynchronous-unwind-tables -fstack-protector-strong -fstack-clash-protection -fcf-protection
	.text
.Ltext0:
	.file 0 "/home/fabi/42/cub3D/libft" "ft_memcmp.c"
	.p2align 4
	.globl	ft_memcmp
	.type	ft_memcmp, @function
ft_memcmp:
.LVL0:
.LFB51:
	.file 1 "ft_memcmp.c"
	.loc 1 16 1 view -0
	.cfi_startproc
	.loc 1 16 1 is_stmt 0 view .LVU1
	endbr64	
	pushq	%rbp	#
	.cfi_def_cfa_offset 16
	.cfi_offset 6, -16
	movq	%rsp, %rbp	#,
	.cfi_def_cfa_register 6
1:	call	*mcount@GOTPCREL(%rip)
# ft_memcmp.c:16: {
	.loc 1 16 1 view .LVU2
	.loc 1 17 2 is_stmt 1 view .LVU3
	.loc 1 18 2 view .LVU4
	.loc 1 20 2 view .LVU5
.LVL1:
	.loc 1 21 2 view .LVU6
	.loc 1 22 2 view .LVU7
# ft_memcmp.c:22: 	while (n--)
	.loc 1 22 8 is_stmt 0 view .LVU8
	xorl	%eax, %eax	# ivtmp.7
	jmp	.L2	#
.LVL2:
	.p2align 4,,10
	.p2align 3
.L4:
	.loc 1 24 3 is_stmt 1 view .LVU9
# ft_memcmp.c:24: 		if (*(str1++) - *(str2++))
	.loc 1 24 7 is_stmt 0 view .LVU10
	movzbl	(%rdi,%rax), %ecx	# MEM[(const unsigned char *)s1_11(D) + ivtmp.7_19 * 1], _1
.LVL3:
# ft_memcmp.c:24: 		if (*(str1++) - *(str2++))
	.loc 1 24 6 view .LVU11
	incq	%rax	# ivtmp.7
.LVL4:
# ft_memcmp.c:24: 		if (*(str1++) - *(str2++))
	.loc 1 24 19 view .LVU12
	movzbl	-1(%rsi,%rax), %r8d	# MEM[(const unsigned char *)s2_12(D) + -1B + ivtmp.7_5 * 1], _2
# ft_memcmp.c:24: 		if (*(str1++) - *(str2++))
	.loc 1 24 6 view .LVU13
	cmpb	%r8b, %cl	# _2, _1
	jne	.L7	#,
.LVL5:
.L2:
	.loc 1 22 9 is_stmt 1 view .LVU14
	.loc 1 22 9 is_stmt 0 view .LVU15
	cmpq	%rax, %rdx	# ivtmp.7, n
	jne	.L4	#,
# ft_memcmp.c:27: 	return (0);
	.loc 1 27 9 view .LVU16
	xorl	%eax, %eax	# <retval>
.LVL6:
# ft_memcmp.c:28: }
	.loc 1 28 1 view .LVU17
	popq	%rbp	#
	.cfi_remember_state
	.cfi_def_cfa 7, 8
	ret	
.LVL7:
	.p2align 4,,10
	.p2align 3
.L7:
	.cfi_restore_state
	.loc 1 25 4 is_stmt 1 view .LVU18
# ft_memcmp.c:25: 			return (*(--str1) - *(--str2));
	.loc 1 25 12 is_stmt 0 view .LVU19
	movzbl	%cl, %eax	# _1, _1
.LVL8:
# ft_memcmp.c:25: 			return (*(--str1) - *(--str2));
	.loc 1 25 24 view .LVU20
	movzbl	%r8b, %r8d	# _2, _2
# ft_memcmp.c:28: }
	.loc 1 28 1 view .LVU21
	popq	%rbp	#
	.cfi_def_cfa 7, 8
# ft_memcmp.c:25: 			return (*(--str1) - *(--str2));
	.loc 1 25 22 view .LVU22
	subl	%r8d, %eax	# _2, <retval>
# ft_memcmp.c:28: }
	.loc 1 28 1 view .LVU23
	ret	
	.cfi_endproc
.LFE51:
	.size	ft_memcmp, .-ft_memcmp
.Letext0:
	.file 2 "/usr/lib/gcc/x86_64-linux-gnu/13/include/stddef.h"
	.section	.note.GNU-stack,"",@progbits
	.section	.note.gnu.property,"a"
	.align 8
	.long	1f - 0f
	.long	4f - 1f
	.long	5
0:
	.string	"GNU"
1:
	.align 8
	.long	0xc0000002
	.long	3f - 2f
2:
	.long	0x3
3:
	.align 8
4:

ft_strnstr.o/   0           0     0     644     15717     `
	.file	"ft_strnstr.c"
# GNU C17 (Ubuntu 13.2.0-23ubuntu4) version 13.2.0 (x86_64-linux-gnu)
#	compiled by GNU C version 13.2.0, GMP version 6.3.0, MPFR version 4.2.1, MPC version 1.3.1, isl version isl-0.26-GMP

# GGC heuristics: --param ggc-min-expand=100 --param ggc-min-heapsize=131072
# options passed: -march=skylake -mmmx -mpopcnt -msse -msse2 -msse3 -mssse3 -msse4.1 -msse4.2 -mavx -mno-sse4a -mno-fma4 -mno-xop -mfma -mno-avx512f -mbmi -mbmi2 -maes -mpclmul -mno-avx512vl -mno-avx512bw -mno-avx512dq -mno-avx512cd -mno-avx512er -mno-avx512pf -mno-avx512vbmi -mno-avx512ifma -mno-avx5124vnniw -mno-avx5124fmaps -mno-avx512vpopcntdq -mno-avx512vbmi2 -mno-gfni -mno-vpclmulqdq -mno-avx512vnni -mno-avx512bitalg -mno-avx512bf16 -mno-avx512vp2intersect -mno-3dnow -madx -mabm -mno-cldemote -mclflushopt -mno-clwb -mno-clzero -mcx16 -mno-enqcmd -mf16c -mfsgsbase -mfxsr -mhle -msahf -mno-lwp -mlzcnt -mmovbe -mno-movdir64b -mno-movdiri -mno-mwaitx -mno-pconfig -mno-pku -mno-prefetchwt1 -mprfchw -mno-ptwrite -mno-rdpid -mrdrnd -mrdseed -mrtm -mno-serialize -msgx -mno-sha -mno-shstk -mno-tbm -mno-tsxldtrk -mno-vaes -mno-waitpkg -mno-wbnoinvd -mxsave -mxsavec -mxsaveopt -mxsaves -mno-amx-tile -mno-amx-int8 -mno-amx-bf16 -mno-uintr -mno-hreset -mno-kl -mno-widekl -mno-avxvnni -mno-avx512fp16 -mno-avxifma -mno-avxvnniint8 -mno-avxneconvert -mno-cmpccxadd -mno-amx-fp16 -mno-prefetchi -mno-raoint -mno-amx-complex --param=l1-cache-size=32 --param=l1-cache-line-size=64 --param=l2-cache-size=16384 -mtune=skylake -mavx2 -g -Ofast -p -fasynchronous-unwind-tables -fstack-protector-strong -fstack-clash-protection -fcf-protection
	.text
.Ltext0:
	.file 0 "/home/fabi/42/cub3D/libft" "ft_strnstr.c"
	.p2align 4
	.globl	ft_strnstr
	.type	ft_strnstr, @function
ft_strnstr:
.LVL0:
.LFB51:
	.file 1 "ft_strnstr.c"
	.loc 1 16 1 view -0
	.cfi_startproc
	.loc 1 16 1 is_stmt 0 view .LVU1
	endbr64	
	pushq	%rbp	#
	.cfi_def_cfa_offset 16
	.cfi_offset 6, -16
	movq	%rsp, %rbp	#,
	.cfi_def_cfa_register 6
	pushq	%r15	#
	pushq	%r14	#
	pushq	%r13	#
	pushq	%r12	#
	pushq	%rbx	#
	subq	$8, %rsp	#,
	.cfi_offset 15, -24
	.cfi_offset 14, -32
	.cfi_offset 13, -40
	.cfi_offset 12, -48
	.cfi_offset 3, -56
1:	call	*mcount@GOTPCREL(%rip)
# ft_strnstr.c:16: {
	.loc 1 16 1 view .LVU2
	.loc 1 17 2 is_stmt 1 view .LVU3
	.loc 1 18 2 view .LVU4
	.loc 1 20 2 view .LVU5
# ft_strnstr.c:16: {
	.loc 1 16 1 is_stmt 0 view .LVU6
	movq	%rsi, %r13	# tmp99, needle
	movq	%rdi, %rbx	# tmp98, haystack
	movq	%rdx, %r15	# tmp100, len
# ft_strnstr.c:20: 	haystack_len = ft_strlen(haystack);
	.loc 1 20 17 view .LVU7
	call	ft_strlen@PLT	#
.LVL1:
# ft_strnstr.c:21: 	needle_len = ft_strlen(needle);
	.loc 1 21 15 view .LVU8
	movq	%r13, %rdi	# needle,
# ft_strnstr.c:20: 	haystack_len = ft_strlen(haystack);
	.loc 1 20 17 view .LVU9
	movq	%rax, %r14	# tmp101, haystack_len
.LVL2:
	.loc 1 21 2 is_stmt 1 view .LVU10
# ft_strnstr.c:21: 	needle_len = ft_strlen(needle);
	.loc 1 21 15 is_stmt 0 view .LVU11
	call	ft_strlen@PLT	#
.LVL3:
	.loc 1 21 15 view .LVU12
	movq	%rax, %r12	# tmp102, needle_len
.LVL4:
	.loc 1 22 2 is_stmt 1 view .LVU13
	.loc 1 24 2 view .LVU14
# ft_strnstr.c:24: 	if (!needle_len)
	.loc 1 24 5 is_stmt 0 view .LVU15
	testq	%rax, %rax	# needle_len
	je	.L1	#,
# ft_strnstr.c:22: 	if (haystack_len < len)
	.loc 1 22 5 view .LVU16
	cmpq	%r15, %r14	# len, haystack_len
	cmova	%r15, %r14	# haystack_len,, len, _18
.LVL5:
	.loc 1 26 15 is_stmt 1 view .LVU17
	.loc 1 26 15 is_stmt 0 view .LVU18
	leaq	(%rbx,%r14), %r15	#, tmp97
	cmpq	%rax, %r14	# needle_len, _18
	jnb	.L3	#,
	jmp	.L4	#
.LVL6:
	.p2align 4,,10
	.p2align 3
.L14:
	.loc 1 29 4 is_stmt 1 view .LVU19
# ft_strnstr.c:29: 			haystack++;
	.loc 1 29 12 is_stmt 0 view .LVU20
	incq	%rbx	# <retval>
.LVL7:
	.loc 1 26 15 is_stmt 1 view .LVU21
	.loc 1 26 15 is_stmt 0 view .LVU22
	movq	%r15, %rax	# tmp97, len
	subq	%rbx, %rax	# <retval>, len
	cmpq	%r12, %rax	# needle_len, len
	jb	.L4	#,
.L3:
.LVL8:
	.loc 1 28 3 is_stmt 1 view .LVU23
# ft_strnstr.c:28: 		if (ft_strncmp(haystack, needle, needle_len))
	.loc 1 28 7 is_stmt 0 view .LVU24
	movq	%r12, %rdx	# needle_len,
	movq	%r13, %rsi	# needle,
	movq	%rbx, %rdi	# <retval>,
	call	ft_strncmp@PLT	#
.LVL9:
# ft_strnstr.c:28: 		if (ft_strncmp(haystack, needle, needle_len))
	.loc 1 28 6 discriminator 1 view .LVU25
	testl	%eax, %eax	# tmp103
	jne	.L14	#,
.LVL10:
.L1:
# ft_strnstr.c:34: }
	.loc 1 34 1 view .LVU26
	addq	$8, %rsp	#,
	movq	%rbx, %rax	# <retval>,
	popq	%rbx	#
	popq	%r12	#
.LVL11:
	.loc 1 34 1 view .LVU27
	popq	%r13	#
.LVL12:
	.loc 1 34 1 view .LVU28
	popq	%r14	#
	popq	%r15	#
	popq	%rbp	#
	.cfi_remember_state
	.cfi_def_cfa 7, 8
	ret	
.LVL13:
	.p2align 4,,10
	.p2align 3
.L4:
	.cfi_restore_state
# ft_strnstr.c:33: 	return (0);
	.loc 1 33 9 view .LVU29
	xorl	%ebx, %ebx	# <retval>
.LVL14:
	.loc 1 33 9 view .LVU30
	jmp	.L1	#
	.cfi_endproc
.LFE51:
	.size	ft_strnstr, .-ft_strnstr
.Letext0:
	.file 2 "../includes/libft.h"
	.file 3 "/usr/lib/gcc/x86_64-linux-gnu/13/include/stddef.h"
	.section	.note.GNU-stack,"",@progbits
	.section	.note.gnu.property,"a"
	.align 8
	.long	1f - 0f
	.long	4f - 1f
	.long	5
0:
	.string	"GNU"
1:
	.align 8
	.long	0xc0000002
	.long	3f - 2f
2:
	.long	0x3
3:
	.align 8
4:

ft_atoi.o/      0           0     0     644     18422     `
	.file	"ft_atoi.c"
# GNU C17 (Ubuntu 13.2.0-23ubuntu4) version 13.2.0 (x86_64-linux-gnu)
#	compiled by GNU C version 13.2.0, GMP version 6.3.0, MPFR version 4.2.1, MPC version 1.3.1, isl version isl-0.26-GMP

# GGC heuristics: --param ggc-min-expand=100 --param ggc-min-heapsize=131072
# options passed: -march=skylake -mmmx -mpopcnt -msse -msse2 -msse3 -mssse3 -msse4.1 -msse4.2 -mavx -mno-sse4a -mno-fma4 -mno-xop -mfma -mno-avx512f -mbmi -mbmi2 -maes -mpclmul -mno-avx512vl -mno-avx512bw -mno-avx512dq -mno-avx512cd -mno-avx512er -mno-avx512pf -mno-avx512vbmi -mno-avx512ifma -mno-avx5124vnniw -mno-avx5124fmaps -mno-avx512vpopcntdq -mno-avx512vbmi2 -mno-gfni -mno-vpclmulqdq -mno-avx512vnni -mno-avx512bitalg -mno-avx512bf16 -mno-avx512vp2intersect -mno-3dnow -madx -mabm -mno-cldemote -mclflushopt -mno-clwb -mno-clzero -mcx16 -mno-enqcmd -mf16c -mfsgsbase -mfxsr -mhle -msahf -mno-lwp -mlzcnt -mmovbe -mno-movdir64b -mno-movdiri -mno-mwaitx -mno-pconfig -mno-pku -mno-prefetchwt1 -mprfchw -mno-ptwrite -mno-rdpid -mrdrnd -mrdseed -mrtm -mno-serialize -msgx -mno-sha -mno-shstk -mno-tbm -mno-tsxldtrk -mno-vaes -mno-waitpkg -mno-wbnoinvd -mxsave -mxsavec -mxsaveopt -mxsaves -mno-amx-tile -mno-amx-int8 -mno-amx-bf16 -mno-uintr -mno-hreset -mno-kl -mno-widekl -mno-avxvnni -mno-avx512fp16 -mno-avxifma -mno-avxvnniint8 -mno-avxneconvert -mno-cmpccxadd -mno-amx-fp16 -mno-prefetchi -mno-raoint -mno-amx-complex --param=l1-cache-size=32 --param=l1-cache-line-size=64 --param=l2-cache-size=16384 -mtune=skylake -mavx2 -g -Ofast -p -fasynchronous-unwind-tables -fstack-protector-strong -fstack-clash-protection -fcf-protection
	.text
.Ltext0:
	.file 0 "/home/fabi/42/cub3D/libft" "ft_atoi.c"
	.p2align 4
	.globl	ft_atoi
	.type	ft_atoi, @function
ft_atoi:
.LVL0:
.LFB52:
	.file 1 "ft_atoi.c"
	.loc 1 23 1 view -0
	.cfi_startproc
	.loc 1 23 1 is_stmt 0 view .LVU1
	endbr64	
	pushq	%rbp	#
	.cfi_def_cfa_offset 16
	.cfi_offset 6, -16
	movq	%rsp, %rbp	#,
	.cfi_def_cfa_register 6
	pushq	%r14	#
	pushq	%r13	#
	pushq	%r12	#
	pushq	%rbx	#
	.cfi_offset 14, -24
	.cfi_offset 13, -32
	.cfi_offset 12, -40
	.cfi_offset 3, -48
1:	call	*mcount@GOTPCREL(%rip)
# ft_atoi.c:23: {
	.loc 1 23 1 view .LVU2
	.loc 1 24 2 is_stmt 1 view .LVU3
	.loc 1 25 2 view .LVU4
	.loc 1 26 2 view .LVU5
	.loc 1 28 2 view .LVU6
.LVL1:
	.loc 1 29 2 view .LVU7
	.loc 1 30 2 view .LVU8
	.loc 1 30 13 view .LVU9
# ft_atoi.c:23: {
	.loc 1 23 1 is_stmt 0 view .LVU10
	movq	%rdi, %rbx	# tmp124, str
# ft_atoi.c:30: 	while (str && white_space(*str))
	.loc 1 30 13 view .LVU11
	testq	%rdi, %rdi	# str
	je	.L11	#,
.LVL2:
.L18:
	.loc 1 30 13 is_stmt 1 view .LVU12
# ft_atoi.c:30: 	while (str && white_space(*str))
	.loc 1 30 28 is_stmt 0 discriminator 1 view .LVU13
	movzbl	(%rbx), %eax	#* str, _45
.LVL3:
.LBB4:
.LBI4:
	.loc 1 15 12 is_stmt 1 view .LVU14
.LBB5:
	.loc 1 17 2 view .LVU15
# ft_atoi.c:17: 	if ((c >= 9 && c <= 13) || c == ' ')
	.loc 1 17 14 is_stmt 0 view .LVU16
	leal	-9(%rax), %edx	#, tmp109
# ft_atoi.c:17: 	if ((c >= 9 && c <= 13) || c == ' ')
	.loc 1 17 5 view .LVU17
	cmpb	$4, %dl	#, tmp109
	jbe	.L15	#,
	cmpb	$32, %al	#, _45
	je	.L15	#,
.LVL4:
	.loc 1 17 5 view .LVU18
.LBE5:
.LBE4:
	.loc 1 32 2 is_stmt 1 view .LVU19
# ft_atoi.c:32: 	if (str && *str == '-')
	.loc 1 32 10 is_stmt 0 discriminator 1 view .LVU20
	cmpb	$45, %al	#, _45
	je	.L20	#,
	.loc 1 37 7 is_stmt 1 view .LVU21
# ft_atoi.c:37: 	else if (str && *str == '+')
	.loc 1 37 15 is_stmt 0 discriminator 1 view .LVU22
	cmpb	$43, %al	#, _45
# ft_atoi.c:29: 	sign = 1;
	.loc 1 29 7 view .LVU23
	movl	$1, %r13d	#, sign
# ft_atoi.c:38: 		str++;
	.loc 1 38 6 view .LVU24
	sete	%al	#, tmp127
	movzbl	%al, %eax	# tmp127, tmp126
	addq	%rax, %rbx	# tmp126, str
.LVL5:
.L7:
# ft_atoi.c:35: 		sign = -1;
	.loc 1 35 8 view .LVU25
	xorl	%r14d, %r14d	# num
# ft_atoi.c:44: 			digit = -digit;
	.loc 1 44 10 view .LVU26
	movl	$48, %r12d	#, tmp123
	jmp	.L9	#
.LVL6:
	.p2align 4,,10
	.p2align 3
.L10:
	.loc 1 41 3 is_stmt 1 view .LVU27
# ft_atoi.c:42: 		digit = (int)(*str - '0');
	.loc 1 42 17 is_stmt 0 view .LVU28
	movsbl	(%rbx), %eax	# MEM[(const char *)str_41], _5
# ft_atoi.c:44: 			digit = -digit;
	.loc 1 44 10 view .LVU29
	movl	%r12d, %ecx	# tmp123, tmp122
# ft_atoi.c:41: 		num *= 10;
	.loc 1 41 7 view .LVU30
	leal	(%r14,%r14,4), %edx	#, tmp116
.LVL7:
	.loc 1 42 3 is_stmt 1 view .LVU31
	.loc 1 43 3 view .LVU32
# ft_atoi.c:44: 			digit = -digit;
	.loc 1 44 10 is_stmt 0 view .LVU33
	subl	%eax, %ecx	# _5, tmp122
	subl	$48, %eax	#, digit
.LVL8:
	.loc 1 44 10 view .LVU34
	cmovs	%ecx, %eax	# tmp122,, digit
.LVL9:
	.loc 1 45 3 is_stmt 1 view .LVU35
# ft_atoi.c:46: 		str++;
	.loc 1 46 6 is_stmt 0 view .LVU36
	incq	%rbx	# str
.LVL10:
# ft_atoi.c:45: 		num += digit;
	.loc 1 45 7 view .LVU37
	leal	(%rax,%rdx,2), %r14d	#, num
.LVL11:
	.loc 1 46 3 is_stmt 1 view .LVU38
	.loc 1 39 13 view .LVU39
.L9:
# ft_atoi.c:39: 	while (str && ft_isdigit(*str))
	.loc 1 39 16 is_stmt 0 discriminator 1 view .LVU40
	movsbl	(%rbx), %edi	# MEM[(const char *)str_41], MEM[(const char *)str_41]
	call	ft_isdigit@PLT	#
.LVL12:
# ft_atoi.c:39: 	while (str && ft_isdigit(*str))
	.loc 1 39 13 discriminator 1 view .LVU41
	testl	%eax, %eax	# tmp125
	jne	.L10	#,
# ft_atoi.c:48: 	return (num * sign);
	.loc 1 48 14 view .LVU42
	movl	%r14d, %eax	# num, num
	imull	%r13d, %eax	# sign, num
.LVL13:
.L1:
# ft_atoi.c:49: }
	.loc 1 49 1 view .LVU43
	popq	%rbx	#
	popq	%r12	#
	popq	%r13	#
	popq	%r14	#
	popq	%rbp	#
	.cfi_remember_state
	.cfi_def_cfa 7, 8
	ret	
.LVL14:
	.p2align 4,,10
	.p2align 3
.L15:
	.cfi_restore_state
.LBB7:
.LBB6:
	.loc 1 18 3 is_stmt 1 view .LVU44
	.loc 1 18 3 is_stmt 0 view .LVU45
.LBE6:
.LBE7:
	.loc 1 31 3 is_stmt 1 view .LVU46
# ft_atoi.c:31: 		str++;
	.loc 1 31 6 is_stmt 0 view .LVU47
	incq	%rbx	# str
.LVL15:
	.loc 1 31 6 view .LVU48
	jmp	.L18	#
.LVL16:
	.p2align 4,,10
	.p2align 3
.L20:
	.loc 1 34 3 is_stmt 1 view .LVU49
# ft_atoi.c:34: 		str++;
	.loc 1 34 6 is_stmt 0 view .LVU50
	incq	%rbx	# str
.LVL17:
	.loc 1 35 3 is_stmt 1 view .LVU51
	.loc 1 39 13 view .LVU52
# ft_atoi.c:35: 		sign = -1;
	.loc 1 35 8 is_stmt 0 view .LVU53
	movl	$-1, %r13d	#, sign
	jmp	.L7	#
.LVL18:
.L11:
# ft_atoi.c:30: 	while (str && white_space(*str))
	.loc 1 30 13 view .LVU54
	xorl	%eax, %eax	# <retval>
.LVL19:
	.loc 1 48 2 is_stmt 1 view .LVU55
# ft_atoi.c:48: 	return (num * sign);
	.loc 1 48 14 is_stmt 0 view .LVU56
	jmp	.L1	#
	.cfi_endproc
.LFE52:
	.size	ft_atoi, .-ft_atoi
.Letext0:
	.file 2 "../includes/libft.h"
	.section	.note.GNU-stack,"",@progbits
	.section	.note.gnu.property,"a"
	.align 8
	.long	1f - 0f
	.long	4f - 1f
	.long	5
0:
	.string	"GNU"
1:
	.align 8
	.long	0xc0000002
	.long	3f - 2f
2:
	.long	0x3
3:
	.align 8
4:
ft_calloc.o/    0           0     0     644     13956     `
	.file	"ft_calloc.c"
# GNU C17 (Ubuntu 13.2.0-23ubuntu4) version 13.2.0 (x86_64-linux-gnu)
#	compiled by GNU C version 13.2.0, GMP version 6.3.0, MPFR version 4.2.1, MPC version 1.3.1, isl version isl-0.26-GMP

# GGC heuristics: --param ggc-min-expand=100 --param ggc-min-heapsize=131072
# options passed: -march=skylake -mmmx -mpopcnt -msse -msse2 -msse3 -mssse3 -msse4.1 -msse4.2 -mavx -mno-sse4a -mno-fma4 -mno-xop -mfma -mno-avx512f -mbmi -mbmi2 -maes -mpclmul -mno-avx512vl -mno-avx512bw -mno-avx512dq -mno-avx512cd -mno-avx512er -mno-avx512pf -mno-avx512vbmi -mno-avx512ifma -mno-avx5124vnniw -mno-avx5124fmaps -mno-avx512vpopcntdq -mno-avx512vbmi2 -mno-gfni -mno-vpclmulqdq -mno-avx512vnni -mno-avx512bitalg -mno-avx512bf16 -mno-avx512vp2intersect -mno-3dnow -madx -mabm -mno-cldemote -mclflushopt -mno-clwb -mno-clzero -mcx16 -mno-enqcmd -mf16c -mfsgsbase -mfxsr -mhle -msahf -mno-lwp -mlzcnt -mmovbe -mno-movdir64b -mno-movdiri -mno-mwaitx -mno-pconfig -mno-pku -mno-prefetchwt1 -mprfchw -mno-ptwrite -mno-rdpid -mrdrnd -mrdseed -mrtm -mno-serialize -msgx -mno-sha -mno-shstk -mno-tbm -mno-tsxldtrk -mno-vaes -mno-waitpkg -mno-wbnoinvd -mxsave -mxsavec -mxsaveopt -mxsaves -mno-amx-tile -mno-amx-int8 -mno-amx-bf16 -mno-uintr -mno-hreset -mno-kl -mno-widekl -mno-avxvnni -mno-avx512fp16 -mno-avxifma -mno-avxvnniint8 -mno-avxneconvert -mno-cmpccxadd -mno-amx-fp16 -mno-prefetchi -mno-raoint -mno-amx-complex --param=l1-cache-size=32 --param=l1-cache-line-size=64 --param=l2-cache-size=16384 -mtune=skylake -mavx2 -g -Ofast -p -fasynchronous-unwind-tables -fstack-protector-strong -fstack-clash-protection -fcf-protection
	.text
.Ltext0:
	.file 0 "/home/fabi/42/cub3D/libft" "ft_calloc.c"
	.p2align 4
	.globl	ft_calloc
	.type	ft_calloc, @function
ft_calloc:
.LVL0:
.LFB51:
	.file 1 "ft_calloc.c"
	.loc 1 16 1 view -0
	.cfi_startproc
	.loc 1 16 1 is_stmt 0 view .LVU1
	endbr64	
	pushq	%rbp	#
	.cfi_def_cfa_offset 16
	.cfi_offset 6, -16
	movq	%rsp, %rbp	#,
	.cfi_def_cfa_register 6
	pushq	%rbx	#
	subq	$8, %rsp	#,
	.cfi_offset 3, -24
1:	call	*mcount@GOTPCREL(%rip)
# ft_calloc.c:16: {
	.loc 1 16 1 view .LVU2
	.loc 1 17 2 is_stmt 1 view .LVU3
	.loc 1 18 2 view .LVU4
	.loc 1 19 2 view .LVU5
	.loc 1 21 2 view .LVU6
# ft_calloc.c:21: 	bytes = count * size;
	.loc 1 21 8 is_stmt 0 view .LVU7
	movl	%edi, %ebx	# tmp99, _3
	imull	%esi, %ebx	# tmp100, _3
.LVL1:
	.loc 1 22 2 is_stmt 1 view .LVU8
# ft_calloc.c:22: 	if (!bytes)
	.loc 1 22 5 is_stmt 0 view .LVU9
	testl	%ebx, %ebx	# _3
	je	.L2	#,
	.loc 1 24 2 is_stmt 1 view .LVU10
# ft_calloc.c:24: 	buffer = (char *)malloc(bytes);
	.loc 1 24 19 is_stmt 0 view .LVU11
	movslq	%ebx, %rdi	# _3, bytes
.LVL2:
	.loc 1 24 19 view .LVU12
	call	malloc@PLT	#
.LVL3:
	.loc 1 24 19 view .LVU13
	movq	%rax, %rcx	# tmp101, <retval>
.LVL4:
	.loc 1 25 2 is_stmt 1 view .LVU14
# ft_calloc.c:25: 	if (!buffer)
	.loc 1 25 5 is_stmt 0 view .LVU15
	testq	%rax, %rax	# <retval>
	je	.L2	#,
.LVL5:
	.loc 1 30 11 is_stmt 1 view .LVU16
	testl	%ebx, %ebx	# _3
	jle	.L1	#,
# ft_calloc.c:31: 		buffer[i++] = 0;
	.loc 1 31 15 is_stmt 0 view .LVU17
	movl	%ebx, %edx	# _3, _3
	xorl	%esi, %esi	#
	movq	%rax, %rdi	# <retval>,
	call	memset@PLT	#
.LVL6:
	.loc 1 31 15 view .LVU18
	movq	%rax, %rcx	#, <retval>
.LVL7:
.L1:
# ft_calloc.c:33: }
	.loc 1 33 1 view .LVU19
	movq	-8(%rbp), %rbx	#,
.LVL8:
	.loc 1 33 1 view .LVU20
	movq	%rcx, %rax	# <retval>,
	leave	
	.cfi_remember_state
	.cfi_def_cfa 7, 8
	ret	
.LVL9:
	.p2align 4,,10
	.p2align 3
.L2:
	.cfi_restore_state
# ft_calloc.c:23: 		return (NULL);
	.loc 1 23 10 view .LVU21
	xorl	%ecx, %ecx	# <retval>
# ft_calloc.c:33: }
	.loc 1 33 1 view .LVU22
	movq	-8(%rbp), %rbx	#,
.LVL10:
	.loc 1 33 1 view .LVU23
	leave	
	.cfi_def_cfa 7, 8
	movq	%rcx, %rax	# <retval>,
	ret	
	.cfi_endproc
.LFE51:
	.size	ft_calloc, .-ft_calloc
.Letext0:
	.file 2 "/usr/lib/gcc/x86_64-linux-gnu/13/include/stddef.h"
	.file 3 "/usr/include/stdlib.h"
	.file 4 "<built-in>"
	.section	.note.GNU-stack,"",@progbits
	.section	.note.gnu.property,"a"
	.align 8
	.long	1f - 0f
	.long	4f - 1f
	.long	5
0:
	.string	"GNU"
1:
	.align 8
	.long	0xc0000002
	.long	3f - 2f
2:
	.long	0x3
3:
	.align 8
4:
ft_strdup.o/    0           0     0     644     49472     `
	.file	"ft_strdup.c"
# GNU C17 (Ubuntu 13.2.0-23ubuntu4) version 13.2.0 (x86_64-linux-gnu)
#	compiled by GNU C version 13.2.0, GMP version 6.3.0, MPFR version 4.2.1, MPC version 1.3.1, isl version isl-0.26-GMP

# GGC heuristics: --param ggc-min-expand=100 --param ggc-min-heapsize=131072
# options passed: -march=skylake -mmmx -mpopcnt -msse -msse2 -msse3 -mssse3 -msse4.1 -msse4.2 -mavx -mno-sse4a -mno-fma4 -mno-xop -mfma -mno-avx512f -mbmi -mbmi2 -maes -mpclmul -mno-avx512vl -mno-avx512bw -mno-avx512dq -mno-avx512cd -mno-avx512er -mno-avx512pf -mno-avx512vbmi -mno-avx512ifma -mno-avx5124vnniw -mno-avx5124fmaps -mno-avx512vpopcntdq -mno-avx512vbmi2 -mno-gfni -mno-vpclmulqdq -mno-avx512vnni -mno-avx512bitalg -mno-avx512bf16 -mno-avx512vp2intersect -mno-3dnow -madx -mabm -mno-cldemote -mclflushopt -mno-clwb -mno-clzero -mcx16 -mno-enqcmd -mf16c -mfsgsbase -mfxsr -mhle -msahf -mno-lwp -mlzcnt -mmovbe -mno-movdir64b -mno-movdiri -mno-mwaitx -mno-pconfig -mno-pku -mno-prefetchwt1 -mprfchw -mno-ptwrite -mno-rdpid -mrdrnd -mrdseed -mrtm -mno-serialize -msgx -mno-sha -mno-shstk -mno-tbm -mno-tsxldtrk -mno-vaes -mno-waitpkg -mno-wbnoinvd -mxsave -mxsavec -mxsaveopt -mxsaves -mno-amx-tile -mno-amx-int8 -mno-amx-bf16 -mno-uintr -mno-hreset -mno-kl -mno-widekl -mno-avxvnni -mno-avx512fp16 -mno-avxifma -mno-avxvnniint8 -mno-avxneconvert -mno-cmpccxadd -mno-amx-fp16 -mno-prefetchi -mno-raoint -mno-amx-complex --param=l1-cache-size=32 --param=l1-cache-line-size=64 --param=l2-cache-size=16384 -mtune=skylake -mavx2 -g -Ofast -p -fasynchronous-unwind-tables -fstack-protector-strong -fstack-clash-protection -fcf-protection
	.text
.Ltext0:
	.file 0 "/home/fabi/42/cub3D/libft" "ft_strdup.c"
	.p2align 4
	.globl	ft_strdup
	.type	ft_strdup, @function
ft_strdup:
.LVL0:
.LFB51:
	.file 1 "ft_strdup.c"
	.loc 1 16 1 view -0
	.cfi_startproc
	.loc 1 16 1 is_stmt 0 view .LVU1
	endbr64	
	pushq	%rbp	#
	.cfi_def_cfa_offset 16
	.cfi_offset 6, -16
	movq	%rsp, %rbp	#,
	.cfi_def_cfa_register 6
	pushq	%r12	#
	pushq	%rbx	#
	andq	$-32, %rsp	#,
	.cfi_offset 12, -24
	.cfi_offset 3, -32
1:	call	*mcount@GOTPCREL(%rip)
# ft_strdup.c:16: {
	.loc 1 16 1 view .LVU2
	.loc 1 17 2 is_stmt 1 view .LVU3
	.loc 1 18 2 view .LVU4
	.loc 1 19 2 view .LVU5
	.loc 1 21 2 view .LVU6
# ft_strdup.c:16: {
	.loc 1 16 1 is_stmt 0 view .LVU7
	movq	%rdi, %rbx	# tmp172, s1
# ft_strdup.c:21: 	if (!s1)
	.loc 1 21 5 view .LVU8
	testq	%rdi, %rdi	# s1
	je	.L4	#,
	.loc 1 23 2 is_stmt 1 view .LVU9
# ft_strdup.c:23: 	len = ft_strlen(s1);
	.loc 1 23 8 is_stmt 0 view .LVU10
	call	ft_strlen@PLT	#
.LVL1:
# ft_strdup.c:24: 	cpy = ft_calloc(len + 1, sizeof(char));
	.loc 1 24 8 view .LVU11
	movl	$1, %esi	#,
	leaq	1(%rax), %rdi	#, tmp163
# ft_strdup.c:23: 	len = ft_strlen(s1);
	.loc 1 23 8 view .LVU12
	movq	%rax, %r12	# tmp173, len
.LVL2:
	.loc 1 24 2 is_stmt 1 view .LVU13
# ft_strdup.c:24: 	cpy = ft_calloc(len + 1, sizeof(char));
	.loc 1 24 8 is_stmt 0 view .LVU14
	call	ft_calloc@PLT	#
.LVL3:
	.loc 1 24 8 view .LVU15
	movq	%rax, %rdx	# tmp174, <retval>
.LVL4:
	.loc 1 25 2 is_stmt 1 view .LVU16
# ft_strdup.c:25: 	if (!cpy)
	.loc 1 25 5 is_stmt 0 view .LVU17
	testq	%rax, %rax	# <retval>
	je	.L4	#,
.LVL5:
	.loc 1 28 9 is_stmt 1 view .LVU18
# ft_strdup.c:28: 	while (len--)
	.loc 1 28 12 is_stmt 0 view .LVU19
	leaq	-1(%r12), %rdi	#, tmp.21
.LVL6:
# ft_strdup.c:28: 	while (len--)
	.loc 1 28 9 view .LVU20
	testq	%r12, %r12	# len
	je	.L5	#,
	cmpq	$14, %rdi	#, tmp.21
	jbe	.L15	#,
	leaq	1(%rbx), %rax	#, tmp164
.LVL7:
	.loc 1 28 9 view .LVU21
	movq	%rdx, %rcx	# <retval>, tmp165
	subq	%rax, %rcx	# tmp164, tmp165
	xorl	%eax, %eax	# i
	cmpq	$30, %rcx	#, tmp165
	ja	.L71	#,
.LVL8:
	.p2align 4,,10
	.p2align 3
.L12:
	.loc 1 30 3 is_stmt 1 view .LVU22
# ft_strdup.c:30: 		cpy[i] = s1[i];
	.loc 1 30 14 is_stmt 0 view .LVU23
	movzbl	(%rbx,%rax), %ecx	# MEM[(const char *)s1_12(D) + i_33 * 1], _38
# ft_strdup.c:30: 		cpy[i] = s1[i];
	.loc 1 30 10 view .LVU24
	movb	%cl, (%rdx,%rax)	# _38, MEM[(char *)cpy_17 + i_33 * 1]
	.loc 1 31 3 is_stmt 1 view .LVU25
# ft_strdup.c:31: 		i++;
	.loc 1 31 4 is_stmt 0 view .LVU26
	incq	%rax	# i
.LVL9:
	.loc 1 28 9 is_stmt 1 view .LVU27
	.loc 1 28 9 is_stmt 0 view .LVU28
	cmpq	%rax, %r12	# i, len
	jne	.L12	#,
.LVL10:
.L13:
# ft_strdup.c:33: 	cpy[i] = '\0';
	.loc 1 33 5 view .LVU29
	leaq	(%rdx,%r12), %rax	#, prephitmp_5
.L5:
	.loc 1 33 2 is_stmt 1 view .LVU30
# ft_strdup.c:33: 	cpy[i] = '\0';
	.loc 1 33 9 is_stmt 0 view .LVU31
	movb	$0, (%rax)	#, *prephitmp_5
	.loc 1 34 2 is_stmt 1 view .LVU32
# ft_strdup.c:35: }
	.loc 1 35 1 is_stmt 0 view .LVU33
	leaq	-16(%rbp), %rsp	#,
	movq	%rdx, %rax	# <retval>,
	popq	%rbx	#
.LVL11:
	.loc 1 35 1 view .LVU34
	popq	%r12	#
	popq	%rbp	#
	.cfi_remember_state
	.cfi_def_cfa 7, 8
	ret	
.LVL12:
	.p2align 4,,10
	.p2align 3
.L71:
	.cfi_restore_state
	.loc 1 35 1 view .LVU35
	cmpq	$30, %rdi	#, tmp.21
	jbe	.L17	#,
	movq	%r12, %rcx	# len, tmp.20
# ft_strdup.c:28: 	while (len--)
	.loc 1 28 9 view .LVU36
	xorl	%esi, %esi	# ivtmp.43
	andq	$-32, %rcx	#, tmp.20
.LVL13:
	.p2align 4,,10
	.p2align 3
.L8:
	.loc 1 30 3 is_stmt 1 view .LVU37
# ft_strdup.c:30: 		cpy[i] = s1[i];
	.loc 1 30 10 is_stmt 0 view .LVU38
	vmovdqu	(%rbx,%rsi), %ymm0	# MEM <const vector(32) char> [(const char *)s1_12(D) + ivtmp.43_31 * 1], tmp178
	vmovdqu	%ymm0, (%rdx,%rsi)	# tmp178, MEM <vector(32) char> [(char *)cpy_17 + ivtmp.43_31 * 1]
	.loc 1 31 3 is_stmt 1 view .LVU39
	.loc 1 28 9 view .LVU40
	addq	$32, %rsi	#, ivtmp.43
	cmpq	%rcx, %rsi	# tmp.20, ivtmp.43
	jne	.L8	#,
	subq	%rcx, %rdi	# tmp.20, tmp.21
	cmpq	%rcx, %r12	# tmp.20, len
	je	.L68	#,
	movq	%r12, %rax	# len, niters.17
	subq	%rcx, %rax	# tmp.20, niters.17
	leaq	-1(%rax), %rsi	#, tmp168
	cmpq	$14, %rsi	#, tmp168
	jbe	.L72	#,
	vzeroupper
.LVL14:
.L7:
	.loc 1 30 3 view .LVU41
# ft_strdup.c:30: 		cpy[i] = s1[i];
	.loc 1 30 10 is_stmt 0 view .LVU42
	vmovdqu	(%rbx,%rcx), %xmm1	# MEM <const vector(16) char> [(const char *)vectp_s1.23_93], tmp180
	movq	%rax, %rsi	# niters.17, niters_vector_mult_vf.19
	andq	$-16, %rsi	#, niters_vector_mult_vf.19
	vmovdqu	%xmm1, (%rdx,%rcx)	# tmp180, MEM <vector(16) char> [(char *)vectp_cpy.26_97]
	.loc 1 31 3 is_stmt 1 view .LVU43
	.loc 1 28 9 view .LVU44
	subq	%rsi, %rdi	# niters_vector_mult_vf.19, tmp.21
	addq	%rsi, %rcx	# niters_vector_mult_vf.19, tmp.20
	testb	$15, %al	#, niters.17
	je	.L13	#,
.L10:
.LVL15:
	.loc 1 30 3 view .LVU45
# ft_strdup.c:30: 		cpy[i] = s1[i];
	.loc 1 30 14 is_stmt 0 view .LVU46
	movzbl	(%rbx,%rcx), %eax	# *_3, _22
# ft_strdup.c:30: 		cpy[i] = s1[i];
	.loc 1 30 10 view .LVU47
	movb	%al, (%rdx,%rcx)	# _22, *_4
	.loc 1 31 3 is_stmt 1 view .LVU48
.LVL16:
	.loc 1 28 9 view .LVU49
	.loc 1 28 9 is_stmt 0 view .LVU50
	testq	%rdi, %rdi	# tmp.21
	je	.L13	#,
	.loc 1 30 3 is_stmt 1 view .LVU51
# ft_strdup.c:30: 		cpy[i] = s1[i];
	.loc 1 30 14 is_stmt 0 view .LVU52
	movzbl	1(%rbx,%rcx), %eax	# *_50, _71
# ft_strdup.c:30: 		cpy[i] = s1[i];
	.loc 1 30 10 view .LVU53
	movb	%al, 1(%rdx,%rcx)	# _71, *_51
	.loc 1 31 3 is_stmt 1 view .LVU54
.LVL17:
	.loc 1 28 9 view .LVU55
	.loc 1 28 9 is_stmt 0 view .LVU56
	cmpq	$1, %rdi	#, tmp.21
	je	.L13	#,
	.loc 1 30 3 is_stmt 1 view .LVU57
# ft_strdup.c:30: 		cpy[i] = s1[i];
	.loc 1 30 14 is_stmt 0 view .LVU58
	movzbl	2(%rbx,%rcx), %eax	# *_106, _108
# ft_strdup.c:30: 		cpy[i] = s1[i];
	.loc 1 30 10 view .LVU59
	movb	%al, 2(%rdx,%rcx)	# _108, *_107
	.loc 1 31 3 is_stmt 1 view .LVU60
.LVL18:
	.loc 1 28 9 view .LVU61
	.loc 1 28 9 is_stmt 0 view .LVU62
	cmpq	$2, %rdi	#, tmp.21
	je	.L13	#,
	.loc 1 30 3 is_stmt 1 view .LVU63
# ft_strdup.c:30: 		cpy[i] = s1[i];
	.loc 1 30 14 is_stmt 0 view .LVU64
	movzbl	3(%rbx,%rcx), %eax	# *_115, _117
# ft_strdup.c:30: 		cpy[i] = s1[i];
	.loc 1 30 10 view .LVU65
	movb	%al, 3(%rdx,%rcx)	# _117, *_116
	.loc 1 31 3 is_stmt 1 view .LVU66
.LVL19:
	.loc 1 28 9 view .LVU67
	.loc 1 28 9 is_stmt 0 view .LVU68
	cmpq	$3, %rdi	#, tmp.21
	je	.L13	#,
	.loc 1 30 3 is_stmt 1 view .LVU69
# ft_strdup.c:30: 		cpy[i] = s1[i];
	.loc 1 30 14 is_stmt 0 view .LVU70
	movzbl	4(%rbx,%rcx), %eax	# *_124, _126
# ft_strdup.c:30: 		cpy[i] = s1[i];
	.loc 1 30 10 view .LVU71
	movb	%al, 4(%rdx,%rcx)	# _126, *_125
	.loc 1 31 3 is_stmt 1 view .LVU72
.LVL20:
	.loc 1 28 9 view .LVU73
	.loc 1 28 9 is_stmt 0 view .LVU74
	cmpq	$4, %rdi	#, tmp.21
	je	.L13	#,
	.loc 1 30 3 is_stmt 1 view .LVU75
# ft_strdup.c:30: 		cpy[i] = s1[i];
	.loc 1 30 14 is_stmt 0 view .LVU76
	movzbl	5(%rbx,%rcx), %eax	# *_133, _135
# ft_strdup.c:30: 		cpy[i] = s1[i];
	.loc 1 30 10 view .LVU77
	movb	%al, 5(%rdx,%rcx)	# _135, *_134
	.loc 1 31 3 is_stmt 1 view .LVU78
.LVL21:
	.loc 1 28 9 view .LVU79
	.loc 1 28 9 is_stmt 0 view .LVU80
	cmpq	$5, %rdi	#, tmp.21
	je	.L13	#,
	.loc 1 30 3 is_stmt 1 view .LVU81
# ft_strdup.c:30: 		cpy[i] = s1[i];
	.loc 1 30 14 is_stmt 0 view .LVU82
	movzbl	6(%rbx,%rcx), %eax	# *_142, _144
# ft_strdup.c:30: 		cpy[i] = s1[i];
	.loc 1 30 10 view .LVU83
	movb	%al, 6(%rdx,%rcx)	# _144, *_143
	.loc 1 31 3 is_stmt 1 view .LVU84
.LVL22:
	.loc 1 28 9 view .LVU85
	.loc 1 28 9 is_stmt 0 view .LVU86
	cmpq	$6, %rdi	#, tmp.21
	je	.L13	#,
	.loc 1 30 3 is_stmt 1 view .LVU87
# ft_strdup.c:30: 		cpy[i] = s1[i];
	.loc 1 30 14 is_stmt 0 view .LVU88
	movzbl	7(%rbx,%rcx), %eax	# *_151, _153
# ft_strdup.c:30: 		cpy[i] = s1[i];
	.loc 1 30 10 view .LVU89
	movb	%al, 7(%rdx,%rcx)	# _153, *_152
	.loc 1 31 3 is_stmt 1 view .LVU90
.LVL23:
	.loc 1 28 9 view .LVU91
	.loc 1 28 9 is_stmt 0 view .LVU92
	cmpq	$7, %rdi	#, tmp.21
	je	.L13	#,
	.loc 1 30 3 is_stmt 1 view .LVU93
# ft_strdup.c:30: 		cpy[i] = s1[i];
	.loc 1 30 14 is_stmt 0 view .LVU94
	movzbl	8(%rbx,%rcx), %eax	# *_160, _162
# ft_strdup.c:30: 		cpy[i] = s1[i];
	.loc 1 30 10 view .LVU95
	movb	%al, 8(%rdx,%rcx)	# _162, *_161
	.loc 1 31 3 is_stmt 1 view .LVU96
.LVL24:
	.loc 1 28 9 view .LVU97
	.loc 1 28 9 is_stmt 0 view .LVU98
	cmpq	$8, %rdi	#, tmp.21
	je	.L13	#,
	.loc 1 30 3 is_stmt 1 view .LVU99
# ft_strdup.c:30: 		cpy[i] = s1[i];
	.loc 1 30 14 is_stmt 0 view .LVU100
	movzbl	9(%rbx,%rcx), %eax	# *_169, _171
# ft_strdup.c:30: 		cpy[i] = s1[i];
	.loc 1 30 10 view .LVU101
	movb	%al, 9(%rdx,%rcx)	# _171, *_170
	.loc 1 31 3 is_stmt 1 view .LVU102
.LVL25:
	.loc 1 28 9 view .LVU103
	.loc 1 28 9 is_stmt 0 view .LVU104
	cmpq	$9, %rdi	#, tmp.21
	je	.L13	#,
	.loc 1 30 3 is_stmt 1 view .LVU105
# ft_strdup.c:30: 		cpy[i] = s1[i];
	.loc 1 30 14 is_stmt 0 view .LVU106
	movzbl	10(%rbx,%rcx), %eax	# *_178, _180
# ft_strdup.c:30: 		cpy[i] = s1[i];
	.loc 1 30 10 view .LVU107
	movb	%al, 10(%rdx,%rcx)	# _180, *_179
	.loc 1 31 3 is_stmt 1 view .LVU108
.LVL26:
	.loc 1 28 9 view .LVU109
	.loc 1 28 9 is_stmt 0 view .LVU110
	cmpq	$10, %rdi	#, tmp.21
	je	.L13	#,
	.loc 1 30 3 is_stmt 1 view .LVU111
# ft_strdup.c:30: 		cpy[i] = s1[i];
	.loc 1 30 14 is_stmt 0 view .LVU112
	movzbl	11(%rbx,%rcx), %eax	# *_187, _189
# ft_strdup.c:30: 		cpy[i] = s1[i];
	.loc 1 30 10 view .LVU113
	movb	%al, 11(%rdx,%rcx)	# _189, *_188
	.loc 1 31 3 is_stmt 1 view .LVU114
.LVL27:
	.loc 1 28 9 view .LVU115
	.loc 1 28 9 is_stmt 0 view .LVU116
	cmpq	$11, %rdi	#, tmp.21
	je	.L13	#,
	.loc 1 30 3 is_stmt 1 view .LVU117
# ft_strdup.c:30: 		cpy[i] = s1[i];
	.loc 1 30 14 is_stmt 0 view .LVU118
	movzbl	12(%rbx,%rcx), %eax	# *_196, _198
# ft_strdup.c:30: 		cpy[i] = s1[i];
	.loc 1 30 10 view .LVU119
	movb	%al, 12(%rdx,%rcx)	# _198, *_197
	.loc 1 31 3 is_stmt 1 view .LVU120
.LVL28:
	.loc 1 28 9 view .LVU121
	.loc 1 28 9 is_stmt 0 view .LVU122
	cmpq	$12, %rdi	#, tmp.21
	je	.L13	#,
	.loc 1 30 3 is_stmt 1 view .LVU123
# ft_strdup.c:30: 		cpy[i] = s1[i];
	.loc 1 30 14 is_stmt 0 view .LVU124
	movzbl	13(%rbx,%rcx), %eax	# *_205, _207
# ft_strdup.c:30: 		cpy[i] = s1[i];
	.loc 1 30 10 view .LVU125
	movb	%al, 13(%rdx,%rcx)	# _207, *_206
	.loc 1 31 3 is_stmt 1 view .LVU126
.LVL29:
	.loc 1 28 9 view .LVU127
	.loc 1 28 9 is_stmt 0 view .LVU128
	cmpq	$13, %rdi	#, tmp.21
	je	.L13	#,
	.loc 1 30 3 is_stmt 1 view .LVU129
# ft_strdup.c:30: 		cpy[i] = s1[i];
	.loc 1 30 14 is_stmt 0 view .LVU130
	movzbl	14(%rbx,%rcx), %eax	# *_76, _78
# ft_strdup.c:30: 		cpy[i] = s1[i];
	.loc 1 30 10 view .LVU131
	movb	%al, 14(%rdx,%rcx)	# _78, *_77
	.loc 1 31 3 is_stmt 1 view .LVU132
.LVL30:
	.loc 1 28 9 view .LVU133
	.loc 1 28 9 is_stmt 0 view .LVU134
	jmp	.L13	#
.LVL31:
	.p2align 4,,10
	.p2align 3
.L15:
	.loc 1 28 9 view .LVU135
	xorl	%eax, %eax	# i
.LVL32:
	.loc 1 30 3 is_stmt 1 view .LVU136
# ft_strdup.c:30: 		cpy[i] = s1[i];
	.loc 1 30 14 is_stmt 0 view .LVU137
	movzbl	(%rbx,%rax), %ecx	# MEM[(const char *)s1_12(D) + i_33 * 1], _38
# ft_strdup.c:30: 		cpy[i] = s1[i];
	.loc 1 30 10 view .LVU138
	movb	%cl, (%rdx,%rax)	# _38, MEM[(char *)cpy_17 + i_33 * 1]
	.loc 1 31 3 is_stmt 1 view .LVU139
# ft_strdup.c:31: 		i++;
	.loc 1 31 4 is_stmt 0 view .LVU140
	incq	%rax	# i
.LVL33:
	.loc 1 28 9 is_stmt 1 view .LVU141
	.loc 1 28 9 is_stmt 0 view .LVU142
	cmpq	%rax, %r12	# i, len
	jne	.L12	#,
	jmp	.L13	#
.LVL34:
	.p2align 4,,10
	.p2align 3
.L4:
# ft_strdup.c:35: }
	.loc 1 35 1 view .LVU143
	leaq	-16(%rbp), %rsp	#,
# ft_strdup.c:22: 		return (NULL);
	.loc 1 22 10 view .LVU144
	xorl	%edx, %edx	# <retval>
# ft_strdup.c:35: }
	.loc 1 35 1 view .LVU145
	popq	%rbx	#
.LVL35:
	.loc 1 35 1 view .LVU146
	movq	%rdx, %rax	# <retval>,
	popq	%r12	#
	popq	%rbp	#
	.cfi_remember_state
	.cfi_def_cfa 7, 8
	ret	
.LVL36:
.L17:
	.cfi_restore_state
# ft_strdup.c:28: 	while (len--)
	.loc 1 28 9 view .LVU147
	movq	%r12, %rax	# len, niters.17
# ft_strdup.c:27: 	i = 0;
	.loc 1 27 4 view .LVU148
	xorl	%ecx, %ecx	# tmp.20
	jmp	.L7	#
.LVL37:
.L72:
	.loc 1 27 4 view .LVU149
	vzeroupper
.LVL38:
	jmp	.L10	#
.L68:
	vzeroupper
.LVL39:
	jmp	.L13	#
	.cfi_endproc
.LFE51:
	.size	ft_strdup, .-ft_strdup
	.p2align 4
	.globl	ft_strndup
	.type	ft_strndup, @function
ft_strndup:
.LVL40:
.LFB52:
	.loc 1 38 1 is_stmt 1 view -0
	.cfi_startproc
	.loc 1 38 1 is_stmt 0 view .LVU151
	endbr64	
	pushq	%rbp	#
	.cfi_def_cfa_offset 16
	.cfi_offset 6, -16
	movq	%rsp, %rbp	#,
	.cfi_def_cfa_register 6
	pushq	%r12	#
	pushq	%rbx	#
	andq	$-32, %rsp	#,
	.cfi_offset 12, -24
	.cfi_offset 3, -32
1:	call	*mcount@GOTPCREL(%rip)
# ft_strdup.c:38: {
	.loc 1 38 1 view .LVU152
	.loc 1 39 2 is_stmt 1 view .LVU153
	.loc 1 40 2 view .LVU154
	.loc 1 41 2 view .LVU155
	.loc 1 43 2 view .LVU156
.LVL41:
	.loc 1 44 2 view .LVU157
# ft_strdup.c:38: {
	.loc 1 38 1 is_stmt 0 view .LVU158
	movq	%rdi, %rbx	# tmp173, s1
# ft_strdup.c:44: 	if (s1)
	.loc 1 44 5 view .LVU159
	testq	%rdi, %rdi	# s1
	je	.L74	#,
	.loc 1 45 3 is_stmt 1 view .LVU160
# ft_strdup.c:45: 		len = ft_strnlen(s1, max_size);
	.loc 1 45 9 is_stmt 0 view .LVU161
	call	ft_strnlen@PLT	#
.LVL42:
# ft_strdup.c:46: 	cpy = (char *)ft_calloc(len + 1, sizeof(char));
	.loc 1 46 16 view .LVU162
	movl	$1, %esi	#,
	leaq	1(%rax), %rdi	#, tmp164
# ft_strdup.c:45: 		len = ft_strnlen(s1, max_size);
	.loc 1 45 9 view .LVU163
	movq	%rax, %r12	# tmp175, len
.LVL43:
	.loc 1 46 2 is_stmt 1 view .LVU164
# ft_strdup.c:46: 	cpy = (char *)ft_calloc(len + 1, sizeof(char));
	.loc 1 46 16 is_stmt 0 view .LVU165
	call	ft_calloc@PLT	#
.LVL44:
	.loc 1 46 16 view .LVU166
	movq	%rax, %rdx	# tmp176, <retval>
.LVL45:
	.loc 1 47 2 is_stmt 1 view .LVU167
# ft_strdup.c:47: 	if (!cpy)
	.loc 1 47 5 is_stmt 0 view .LVU168
	testq	%rax, %rax	# <retval>
	je	.L86	#,
.LVL46:
	.loc 1 50 9 is_stmt 1 view .LVU169
# ft_strdup.c:50: 	while (len--)
	.loc 1 50 12 is_stmt 0 view .LVU170
	leaq	-1(%r12), %rsi	#, tmp.66
.LVL47:
# ft_strdup.c:50: 	while (len--)
	.loc 1 50 9 view .LVU171
	testq	%r12, %r12	# len
	je	.L87	#,
	cmpq	$14, %rsi	#, tmp.66
	jbe	.L88	#,
	leaq	1(%rbx), %rax	#, tmp165
.LVL48:
	.loc 1 50 9 view .LVU172
	movq	%rdx, %rcx	# <retval>, tmp166
	subq	%rax, %rcx	# tmp165, tmp166
	xorl	%eax, %eax	# i
	cmpq	$30, %rcx	#, tmp166
	ja	.L143	#,
.LVL49:
	.p2align 4,,10
	.p2align 3
.L84:
	.loc 1 52 3 is_stmt 1 view .LVU173
# ft_strdup.c:52: 		cpy[i] = s1[i];
	.loc 1 52 14 is_stmt 0 view .LVU174
	movzbl	(%rbx,%rax), %ecx	# MEM[(const char *)s1_13(D) + i_25 * 1], _41
# ft_strdup.c:52: 		cpy[i] = s1[i];
	.loc 1 52 10 view .LVU175
	movb	%cl, (%rdx,%rax)	# _41, MEM[(char *)cpy_19 + i_25 * 1]
	.loc 1 53 3 is_stmt 1 view .LVU176
# ft_strdup.c:53: 		i++;
	.loc 1 53 4 is_stmt 0 view .LVU177
	incq	%rax	# i
.LVL50:
	.loc 1 50 9 is_stmt 1 view .LVU178
	.loc 1 50 9 is_stmt 0 view .LVU179
	cmpq	%rax, %r12	# i, len
	jne	.L84	#,
.LVL51:
.L85:
# ft_strdup.c:55: 	cpy[i] = '\0';
	.loc 1 55 5 view .LVU180
	addq	%rdx, %r12	# <retval>, _8
.L77:
	.loc 1 55 2 is_stmt 1 view .LVU181
# ft_strdup.c:55: 	cpy[i] = '\0';
	.loc 1 55 9 is_stmt 0 view .LVU182
	movb	$0, (%r12)	#, *prephitmp_9
	.loc 1 56 2 is_stmt 1 view .LVU183
.LVL52:
.L73:
# ft_strdup.c:57: }
	.loc 1 57 1 is_stmt 0 view .LVU184
	leaq	-16(%rbp), %rsp	#,
	movq	%rdx, %rax	# <retval>,
	popq	%rbx	#
.LVL53:
	.loc 1 57 1 view .LVU185
	popq	%r12	#
	popq	%rbp	#
	.cfi_remember_state
	.cfi_def_cfa 7, 8
	ret	
.LVL54:
	.p2align 4,,10
	.p2align 3
.L143:
	.cfi_restore_state
	.loc 1 57 1 view .LVU186
	cmpq	$30, %rsi	#, tmp.66
	jbe	.L90	#,
	movq	%r12, %rax	# len, tmp.65
# ft_strdup.c:50: 	while (len--)
	.loc 1 50 9 view .LVU187
	xorl	%ecx, %ecx	# ivtmp.87
	andq	$-32, %rax	#, tmp.65
.LVL55:
	.p2align 4,,10
	.p2align 3
.L80:
	.loc 1 52 3 is_stmt 1 view .LVU188
# ft_strdup.c:52: 		cpy[i] = s1[i];
	.loc 1 52 10 is_stmt 0 view .LVU189
	vmovdqu	(%rbx,%rcx), %ymm0	# MEM <const vector(32) char> [(const char *)s1_13(D) + ivtmp.87_10 * 1], tmp181
	vmovdqu	%ymm0, (%rdx,%rcx)	# tmp181, MEM <vector(32) char> [(char *)cpy_19 + ivtmp.87_10 * 1]
	.loc 1 53 3 is_stmt 1 view .LVU190
	.loc 1 50 9 view .LVU191
	addq	$32, %rcx	#, ivtmp.87
	cmpq	%rax, %rcx	# tmp.65, ivtmp.87
	jne	.L80	#,
	subq	%rax, %rsi	# tmp.65, tmp.66
	cmpq	%rax, %r12	# tmp.65, len
	je	.L141	#,
	movq	%r12, %rcx	# len, niters.62
	subq	%rax, %rcx	# tmp.65, niters.62
	leaq	-1(%rcx), %rdi	#, tmp169
	cmpq	$14, %rdi	#, tmp169
	jbe	.L144	#,
	vzeroupper
.LVL56:
.L79:
	.loc 1 52 3 view .LVU192
# ft_strdup.c:52: 		cpy[i] = s1[i];
	.loc 1 52 10 is_stmt 0 view .LVU193
	vmovdqu	(%rbx,%rax), %xmm1	# MEM <const vector(16) char> [(const char *)vectp_s1.68_96], tmp183
	movq	%rcx, %rdi	# niters.62, niters_vector_mult_vf.64
	andq	$-16, %rdi	#, niters_vector_mult_vf.64
	vmovdqu	%xmm1, (%rdx,%rax)	# tmp183, MEM <vector(16) char> [(char *)vectp_cpy.71_100]
	.loc 1 53 3 is_stmt 1 view .LVU194
	.loc 1 50 9 view .LVU195
	subq	%rdi, %rsi	# niters_vector_mult_vf.64, tmp.66
	addq	%rdi, %rax	# niters_vector_mult_vf.64, tmp.65
	andl	$15, %ecx	#, niters.62
	je	.L85	#,
.L82:
.LVL57:
	.loc 1 52 3 view .LVU196
# ft_strdup.c:52: 		cpy[i] = s1[i];
	.loc 1 52 14 is_stmt 0 view .LVU197
	movzbl	(%rbx,%rax), %ecx	# *_3, _23
# ft_strdup.c:52: 		cpy[i] = s1[i];
	.loc 1 52 10 view .LVU198
	movb	%cl, (%rdx,%rax)	# _23, *_4
	.loc 1 53 3 is_stmt 1 view .LVU199
.LVL58:
	.loc 1 50 9 view .LVU200
	.loc 1 50 9 is_stmt 0 view .LVU201
	testq	%rsi, %rsi	# tmp.66
	je	.L85	#,
	.loc 1 52 3 is_stmt 1 view .LVU202
# ft_strdup.c:52: 		cpy[i] = s1[i];
	.loc 1 52 14 is_stmt 0 view .LVU203
	movzbl	1(%rbx,%rax), %ecx	# *_53, _74
# ft_strdup.c:52: 		cpy[i] = s1[i];
	.loc 1 52 10 view .LVU204
	movb	%cl, 1(%rdx,%rax)	# _74, *_54
	.loc 1 53 3 is_stmt 1 view .LVU205
.LVL59:
	.loc 1 50 9 view .LVU206
	.loc 1 50 9 is_stmt 0 view .LVU207
	cmpq	$1, %rsi	#, tmp.66
	je	.L85	#,
	.loc 1 52 3 is_stmt 1 view .LVU208
# ft_strdup.c:52: 		cpy[i] = s1[i];
	.loc 1 52 14 is_stmt 0 view .LVU209
	movzbl	2(%rbx,%rax), %ecx	# *_109, _111
# ft_strdup.c:52: 		cpy[i] = s1[i];
	.loc 1 52 10 view .LVU210
	movb	%cl, 2(%rdx,%rax)	# _111, *_110
	.loc 1 53 3 is_stmt 1 view .LVU211
.LVL60:
	.loc 1 50 9 view .LVU212
	.loc 1 50 9 is_stmt 0 view .LVU213
	cmpq	$2, %rsi	#, tmp.66
	je	.L85	#,
	.loc 1 52 3 is_stmt 1 view .LVU214
# ft_strdup.c:52: 		cpy[i] = s1[i];
	.loc 1 52 14 is_stmt 0 view .LVU215
	movzbl	3(%rbx,%rax), %ecx	# *_118, _120
# ft_strdup.c:52: 		cpy[i] = s1[i];
	.loc 1 52 10 view .LVU216
	movb	%cl, 3(%rdx,%rax)	# _120, *_119
	.loc 1 53 3 is_stmt 1 view .LVU217
.LVL61:
	.loc 1 50 9 view .LVU218
	.loc 1 50 9 is_stmt 0 view .LVU219
	cmpq	$3, %rsi	#, tmp.66
	je	.L85	#,
	.loc 1 52 3 is_stmt 1 view .LVU220
# ft_strdup.c:52: 		cpy[i] = s1[i];
	.loc 1 52 14 is_stmt 0 view .LVU221
	movzbl	4(%rbx,%rax), %ecx	# *_127, _129
# ft_strdup.c:52: 		cpy[i] = s1[i];
	.loc 1 52 10 view .LVU222
	movb	%cl, 4(%rdx,%rax)	# _129, *_128
	.loc 1 53 3 is_stmt 1 view .LVU223
.LVL62:
	.loc 1 50 9 view .LVU224
	.loc 1 50 9 is_stmt 0 view .LVU225
	cmpq	$4, %rsi	#, tmp.66
	je	.L85	#,
	.loc 1 52 3 is_stmt 1 view .LVU226
# ft_strdup.c:52: 		cpy[i] = s1[i];
	.loc 1 52 14 is_stmt 0 view .LVU227
	movzbl	5(%rbx,%rax), %ecx	# *_136, _138
# ft_strdup.c:52: 		cpy[i] = s1[i];
	.loc 1 52 10 view .LVU228
	movb	%cl, 5(%rdx,%rax)	# _138, *_137
	.loc 1 53 3 is_stmt 1 view .LVU229
.LVL63:
	.loc 1 50 9 view .LVU230
	.loc 1 50 9 is_stmt 0 view .LVU231
	cmpq	$5, %rsi	#, tmp.66
	je	.L85	#,
	.loc 1 52 3 is_stmt 1 view .LVU232
# ft_strdup.c:52: 		cpy[i] = s1[i];
	.loc 1 52 14 is_stmt 0 view .LVU233
	movzbl	6(%rbx,%rax), %ecx	# *_145, _147
# ft_strdup.c:52: 		cpy[i] = s1[i];
	.loc 1 52 10 view .LVU234
	movb	%cl, 6(%rdx,%rax)	# _147, *_146
	.loc 1 53 3 is_stmt 1 view .LVU235
.LVL64:
	.loc 1 50 9 view .LVU236
	.loc 1 50 9 is_stmt 0 view .LVU237
	cmpq	$6, %rsi	#, tmp.66
	je	.L85	#,
	.loc 1 52 3 is_stmt 1 view .LVU238
# ft_strdup.c:52: 		cpy[i] = s1[i];
	.loc 1 52 14 is_stmt 0 view .LVU239
	movzbl	7(%rbx,%rax), %ecx	# *_154, _156
# ft_strdup.c:52: 		cpy[i] = s1[i];
	.loc 1 52 10 view .LVU240
	movb	%cl, 7(%rdx,%rax)	# _156, *_155
	.loc 1 53 3 is_stmt 1 view .LVU241
.LVL65:
	.loc 1 50 9 view .LVU242
	.loc 1 50 9 is_stmt 0 view .LVU243
	cmpq	$7, %rsi	#, tmp.66
	je	.L85	#,
	.loc 1 52 3 is_stmt 1 view .LVU244
# ft_strdup.c:52: 		cpy[i] = s1[i];
	.loc 1 52 14 is_stmt 0 view .LVU245
	movzbl	8(%rbx,%rax), %ecx	# *_163, _165
# ft_strdup.c:52: 		cpy[i] = s1[i];
	.loc 1 52 10 view .LVU246
	movb	%cl, 8(%rdx,%rax)	# _165, *_164
	.loc 1 53 3 is_stmt 1 view .LVU247
.LVL66:
	.loc 1 50 9 view .LVU248
	.loc 1 50 9 is_stmt 0 view .LVU249
	cmpq	$8, %rsi	#, tmp.66
	je	.L85	#,
	.loc 1 52 3 is_stmt 1 view .LVU250
# ft_strdup.c:52: 		cpy[i] = s1[i];
	.loc 1 52 14 is_stmt 0 view .LVU251
	movzbl	9(%rbx,%rax), %ecx	# *_172, _174
# ft_strdup.c:52: 		cpy[i] = s1[i];
	.loc 1 52 10 view .LVU252
	movb	%cl, 9(%rdx,%rax)	# _174, *_173
	.loc 1 53 3 is_stmt 1 view .LVU253
.LVL67:
	.loc 1 50 9 view .LVU254
	.loc 1 50 9 is_stmt 0 view .LVU255
	cmpq	$9, %rsi	#, tmp.66
	je	.L85	#,
	.loc 1 52 3 is_stmt 1 view .LVU256
# ft_strdup.c:52: 		cpy[i] = s1[i];
	.loc 1 52 14 is_stmt 0 view .LVU257
	movzbl	10(%rbx,%rax), %ecx	# *_181, _183
# ft_strdup.c:52: 		cpy[i] = s1[i];
	.loc 1 52 10 view .LVU258
	movb	%cl, 10(%rdx,%rax)	# _183, *_182
	.loc 1 53 3 is_stmt 1 view .LVU259
.LVL68:
	.loc 1 50 9 view .LVU260
	.loc 1 50 9 is_stmt 0 view .LVU261
	cmpq	$10, %rsi	#, tmp.66
	je	.L85	#,
	.loc 1 52 3 is_stmt 1 view .LVU262
# ft_strdup.c:52: 		cpy[i] = s1[i];
	.loc 1 52 14 is_stmt 0 view .LVU263
	movzbl	11(%rbx,%rax), %ecx	# *_190, _192
# ft_strdup.c:52: 		cpy[i] = s1[i];
	.loc 1 52 10 view .LVU264
	movb	%cl, 11(%rdx,%rax)	# _192, *_191
	.loc 1 53 3 is_stmt 1 view .LVU265
.LVL69:
	.loc 1 50 9 view .LVU266
	.loc 1 50 9 is_stmt 0 view .LVU267
	cmpq	$11, %rsi	#, tmp.66
	je	.L85	#,
	.loc 1 52 3 is_stmt 1 view .LVU268
# ft_strdup.c:52: 		cpy[i] = s1[i];
	.loc 1 52 14 is_stmt 0 view .LVU269
	movzbl	12(%rbx,%rax), %ecx	# *_199, _201
# ft_strdup.c:52: 		cpy[i] = s1[i];
	.loc 1 52 10 view .LVU270
	movb	%cl, 12(%rdx,%rax)	# _201, *_200
	.loc 1 53 3 is_stmt 1 view .LVU271
.LVL70:
	.loc 1 50 9 view .LVU272
	.loc 1 50 9 is_stmt 0 view .LVU273
	cmpq	$12, %rsi	#, tmp.66
	je	.L85	#,
	.loc 1 52 3 is_stmt 1 view .LVU274
# ft_strdup.c:52: 		cpy[i] = s1[i];
	.loc 1 52 14 is_stmt 0 view .LVU275
	movzbl	13(%rbx,%rax), %ecx	# *_208, _210
# ft_strdup.c:52: 		cpy[i] = s1[i];
	.loc 1 52 10 view .LVU276
	movb	%cl, 13(%rdx,%rax)	# _210, *_209
	.loc 1 53 3 is_stmt 1 view .LVU277
.LVL71:
	.loc 1 50 9 view .LVU278
	.loc 1 50 9 is_stmt 0 view .LVU279
	cmpq	$13, %rsi	#, tmp.66
	je	.L85	#,
	.loc 1 52 3 is_stmt 1 view .LVU280
# ft_strdup.c:52: 		cpy[i] = s1[i];
	.loc 1 52 14 is_stmt 0 view .LVU281
	movzbl	14(%rbx,%rax), %ecx	# *_79, _81
# ft_strdup.c:52: 		cpy[i] = s1[i];
	.loc 1 52 10 view .LVU282
	movb	%cl, 14(%rdx,%rax)	# _81, *_80
	.loc 1 53 3 is_stmt 1 view .LVU283
.LVL72:
	.loc 1 50 9 view .LVU284
	.loc 1 50 9 is_stmt 0 view .LVU285
	jmp	.L85	#
.LVL73:
	.p2align 4,,10
	.p2align 3
.L88:
	.loc 1 50 9 view .LVU286
	xorl	%eax, %eax	# i
.LVL74:
	.loc 1 52 3 is_stmt 1 view .LVU287
# ft_strdup.c:52: 		cpy[i] = s1[i];
	.loc 1 52 14 is_stmt 0 view .LVU288
	movzbl	(%rbx,%rax), %ecx	# MEM[(const char *)s1_13(D) + i_25 * 1], _41
# ft_strdup.c:52: 		cpy[i] = s1[i];
	.loc 1 52 10 view .LVU289
	movb	%cl, (%rdx,%rax)	# _41, MEM[(char *)cpy_19 + i_25 * 1]
	.loc 1 53 3 is_stmt 1 view .LVU290
# ft_strdup.c:53: 		i++;
	.loc 1 53 4 is_stmt 0 view .LVU291
	incq	%rax	# i
.LVL75:
	.loc 1 50 9 is_stmt 1 view .LVU292
	.loc 1 50 9 is_stmt 0 view .LVU293
	cmpq	%rax, %r12	# i, len
	jne	.L84	#,
	jmp	.L85	#
.LVL76:
	.p2align 4,,10
	.p2align 3
.L74:
	.loc 1 46 2 is_stmt 1 view .LVU294
# ft_strdup.c:46: 	cpy = (char *)ft_calloc(len + 1, sizeof(char));
	.loc 1 46 16 is_stmt 0 view .LVU295
	movl	$1, %esi	#,
.LVL77:
	.loc 1 46 16 view .LVU296
	movl	$1, %edi	#,
	call	ft_calloc@PLT	#
.LVL78:
	movq	%rax, %rdx	# tmp177, <retval>
.LVL79:
	.loc 1 47 2 is_stmt 1 view .LVU297
# ft_strdup.c:47: 	if (!cpy)
	.loc 1 47 5 is_stmt 0 view .LVU298
	testq	%rax, %rax	# <retval>
	jne	.L87	#,
.LVL80:
.L86:
	.loc 1 47 5 view .LVU299
	xorl	%edx, %edx	# <retval>
	jmp	.L73	#
	.p2align 4,,10
	.p2align 3
.L87:
# ft_strdup.c:50: 	while (len--)
	.loc 1 50 9 view .LVU300
	movq	%rdx, %r12	# <retval>, _8
	jmp	.L77	#
.LVL81:
.L90:
	.loc 1 50 9 view .LVU301
	movq	%r12, %rcx	# len, niters.62
# ft_strdup.c:49: 	i = 0;
	.loc 1 49 4 view .LVU302
	xorl	%eax, %eax	# tmp.65
	jmp	.L79	#
.LVL82:
.L144:
	.loc 1 49 4 view .LVU303
	vzeroupper
.LVL83:
	jmp	.L82	#
.L141:
	vzeroupper
.LVL84:
	jmp	.L85	#
	.cfi_endproc
.LFE52:
	.size	ft_strndup, .-ft_strndup
.Letext0:
	.file 2 "../includes/libft.h"
	.file 3 "/usr/lib/gcc/x86_64-linux-gnu/13/include/stddef.h"
	.section	.note.GNU-stack,"",@progbits
	.section	.note.gnu.property,"a"
	.align 8
	.long	1f - 0f
	.long	4f - 1f
	.long	5
0:
	.string	"GNU"
1:
	.align 8
	.long	0xc0000002
	.long	3f - 2f
2:
	.long	0x3
3:
	.align 8
4:
ft_substr.o/    0           0     0     644     14656     `
	.file	"ft_substr.c"
# GNU C17 (Ubuntu 13.2.0-23ubuntu4) version 13.2.0 (x86_64-linux-gnu)
#	compiled by GNU C version 13.2.0, GMP version 6.3.0, MPFR version 4.2.1, MPC version 1.3.1, isl version isl-0.26-GMP

# GGC heuristics: --param ggc-min-expand=100 --param ggc-min-heapsize=131072
# options passed: -march=skylake -mmmx -mpopcnt -msse -msse2 -msse3 -mssse3 -msse4.1 -msse4.2 -mavx -mno-sse4a -mno-fma4 -mno-xop -mfma -mno-avx512f -mbmi -mbmi2 -maes -mpclmul -mno-avx512vl -mno-avx512bw -mno-avx512dq -mno-avx512cd -mno-avx512er -mno-avx512pf -mno-avx512vbmi -mno-avx512ifma -mno-avx5124vnniw -mno-avx5124fmaps -mno-avx512vpopcntdq -mno-avx512vbmi2 -mno-gfni -mno-vpclmulqdq -mno-avx512vnni -mno-avx512bitalg -mno-avx512bf16 -mno-avx512vp2intersect -mno-3dnow -madx -mabm -mno-cldemote -mclflushopt -mno-clwb -mno-clzero -mcx16 -mno-enqcmd -mf16c -mfsgsbase -mfxsr -mhle -msahf -mno-lwp -mlzcnt -mmovbe -mno-movdir64b -mno-movdiri -mno-mwaitx -mno-pconfig -mno-pku -mno-prefetchwt1 -mprfchw -mno-ptwrite -mno-rdpid -mrdrnd -mrdseed -mrtm -mno-serialize -msgx -mno-sha -mno-shstk -mno-tbm -mno-tsxldtrk -mno-vaes -mno-waitpkg -mno-wbnoinvd -mxsave -mxsavec -mxsaveopt -mxsaves -mno-amx-tile -mno-amx-int8 -mno-amx-bf16 -mno-uintr -mno-hreset -mno-kl -mno-widekl -mno-avxvnni -mno-avx512fp16 -mno-avxifma -mno-avxvnniint8 -mno-avxneconvert -mno-cmpccxadd -mno-amx-fp16 -mno-prefetchi -mno-raoint -mno-amx-complex --param=l1-cache-size=32 --param=l1-cache-line-size=64 --param=l2-cache-size=16384 -mtune=skylake -mavx2 -g -Ofast -p -fasynchronous-unwind-tables -fstack-protector-strong -fstack-clash-protection -fcf-protection
	.text
.Ltext0:
	.file 0 "/home/fabi/42/cub3D/libft" "ft_substr.c"
	.p2align 4
	.globl	ft_substr
	.type	ft_substr, @function
ft_substr:
.LVL0:
.LFB51:
	.file 1 "ft_substr.c"
	.loc 1 16 1 view -0
	.cfi_startproc
	.loc 1 16 1 is_stmt 0 view .LVU1
	endbr64	
	pushq	%rbp	#
	.cfi_def_cfa_offset 16
	.cfi_offset 6, -16
	movq	%rsp, %rbp	#,
	.cfi_def_cfa_register 6
	pushq	%r13	#
	pushq	%r12	#
	pushq	%rbx	#
	subq	$8, %rsp	#,
	.cfi_offset 13, -24
	.cfi_offset 12, -32
	.cfi_offset 3, -40
1:	call	*mcount@GOTPCREL(%rip)
# ft_substr.c:16: {
	.loc 1 16 1 view .LVU2
	.loc 1 17 2 is_stmt 1 view .LVU3
	.loc 1 18 2 view .LVU4
	.loc 1 20 2 view .LVU5
# ft_substr.c:16: {
	.loc 1 16 1 is_stmt 0 view .LVU6
	movl	%esi, %r13d	# tmp95, start
	movq	%rdx, %r12	# tmp96, len
	movq	%rdi, %rbx	# tmp94, s
# ft_substr.c:20: 	len2 = ft_strlen(s);
	.loc 1 20 9 view .LVU7
	call	ft_strlen@PLT	#
.LVL1:
	.loc 1 21 2 is_stmt 1 view .LVU8
# ft_substr.c:21: 	if (len2 <= start)
	.loc 1 21 11 is_stmt 0 view .LVU9
	movl	%r13d, %edx	# start, _1
	movl	$1, %r13d	#, _22
.LVL2:
# ft_substr.c:21: 	if (len2 <= start)
	.loc 1 21 5 view .LVU10
	cmpq	%rax, %rdx	# len2, _1
	jnb	.L2	#,
	.loc 1 25 3 is_stmt 1 view .LVU11
# ft_substr.c:26: 		len2 -= start;
	.loc 1 26 8 is_stmt 0 view .LVU12
	subq	%rdx, %rax	# _1, len2
.LVL3:
# ft_substr.c:25: 		s += start;
	.loc 1 25 5 view .LVU13
	addq	%rdx, %rbx	# _1, s
.LVL4:
	.loc 1 26 3 is_stmt 1 view .LVU14
# ft_substr.c:28: 	if (len2 < len)
	.loc 1 28 5 is_stmt 0 view .LVU15
	cmpq	%r12, %rax	# len, len2
	cmova	%r12, %rax	# len2,, len, tmp91
# ft_substr.c:30: 	sub_str = (char *)ft_calloc((len + 1), sizeof(char));
	.loc 1 30 20 view .LVU16
	leaq	1(%rax), %r13	#, _22
.L2:
.LVL5:
	.loc 1 28 2 is_stmt 1 view .LVU17
	.loc 1 30 2 view .LVU18
# ft_substr.c:30: 	sub_str = (char *)ft_calloc((len + 1), sizeof(char));
	.loc 1 30 20 is_stmt 0 view .LVU19
	movl	$1, %esi	#,
	movq	%r13, %rdi	# _22,
	call	ft_calloc@PLT	#
.LVL6:
	.loc 1 30 20 view .LVU20
	movq	%rax, %r12	# tmp98, <retval>
.LVL7:
	.loc 1 31 2 is_stmt 1 view .LVU21
# ft_substr.c:31: 	if (!sub_str)
	.loc 1 31 5 is_stmt 0 view .LVU22
	testq	%rax, %rax	# <retval>
	je	.L1	#,
	.loc 1 33 2 is_stmt 1 view .LVU23
	movq	%r13, %rdx	# _22,
	movq	%rbx, %rsi	# s,
	movq	%rax, %rdi	# <retval>,
	call	ft_strlcpy@PLT	#
.LVL8:
	.loc 1 34 2 view .LVU24
.L1:
# ft_substr.c:35: }
	.loc 1 35 1 is_stmt 0 view .LVU25
	addq	$8, %rsp	#,
	movq	%r12, %rax	# <retval>,
	popq	%rbx	#
.LVL9:
	.loc 1 35 1 view .LVU26
	popq	%r12	#
.LVL10:
	.loc 1 35 1 view .LVU27
	popq	%r13	#
	popq	%rbp	#
	.cfi_def_cfa 7, 8
	ret	
	.cfi_endproc
.LFE51:
	.size	ft_substr, .-ft_substr
.Letext0:
	.file 2 "../includes/libft.h"
	.file 3 "/usr/lib/gcc/x86_64-linux-gnu/13/include/stddef.h"
	.section	.note.GNU-stack,"",@progbits
	.section	.note.gnu.property,"a"
	.align 8
	.long	1f - 0f
	.long	4f - 1f
	.long	5
0:
	.string	"GNU"
1:
	.align 8
	.long	0xc0000002
	.long	3f - 2f
2:
	.long	0x3
3:
	.align 8
4:
ft_strjoin.o/   0           0     0     644     40165     `
	.file	"ft_strjoin.c"
# GNU C17 (Ubuntu 13.2.0-23ubuntu4) version 13.2.0 (x86_64-linux-gnu)
#	compiled by GNU C version 13.2.0, GMP version 6.3.0, MPFR version 4.2.1, MPC version 1.3.1, isl version isl-0.26-GMP

# GGC heuristics: --param ggc-min-expand=100 --param ggc-min-heapsize=131072
# options passed: -march=skylake -mmmx -mpopcnt -msse -msse2 -msse3 -mssse3 -msse4.1 -msse4.2 -mavx -mno-sse4a -mno-fma4 -mno-xop -mfma -mno-avx512f -mbmi -mbmi2 -maes -mpclmul -mno-avx512vl -mno-avx512bw -mno-avx512dq -mno-avx512cd -mno-avx512er -mno-avx512pf -mno-avx512vbmi -mno-avx512ifma -mno-avx5124vnniw -mno-avx5124fmaps -mno-avx512vpopcntdq -mno-avx512vbmi2 -mno-gfni -mno-vpclmulqdq -mno-avx512vnni -mno-avx512bitalg -mno-avx512bf16 -mno-avx512vp2intersect -mno-3dnow -madx -mabm -mno-cldemote -mclflushopt -mno-clwb -mno-clzero -mcx16 -mno-enqcmd -mf16c -mfsgsbase -mfxsr -mhle -msahf -mno-lwp -mlzcnt -mmovbe -mno-movdir64b -mno-movdiri -mno-mwaitx -mno-pconfig -mno-pku -mno-prefetchwt1 -mprfchw -mno-ptwrite -mno-rdpid -mrdrnd -mrdseed -mrtm -mno-serialize -msgx -mno-sha -mno-shstk -mno-tbm -mno-tsxldtrk -mno-vaes -mno-waitpkg -mno-wbnoinvd -mxsave -mxsavec -mxsaveopt -mxsaves -mno-amx-tile -mno-amx-int8 -mno-amx-bf16 -mno-uintr -mno-hreset -mno-kl -mno-widekl -mno-avxvnni -mno-avx512fp16 -mno-avxifma -mno-avxvnniint8 -mno-avxneconvert -mno-cmpccxadd -mno-amx-fp16 -mno-prefetchi -mno-raoint -mno-amx-complex --param=l1-cache-size=32 --param=l1-cache-line-size=64 --param=l2-cache-size=16384 -mtune=skylake -mavx2 -g -Ofast -p -fasynchronous-unwind-tables -fstack-protector-strong -fstack-clash-protection -fcf-protection
	.text
.Ltext0:
	.file 0 "/home/fabi/42/cub3D/libft" "ft_strjoin.c"
	.p2align 4
	.globl	ft_strjoin
	.type	ft_strjoin, @function
ft_strjoin:
.LVL0:
.LFB51:
	.file 1 "ft_strjoin.c"
	.loc 1 16 1 view -0
	.cfi_startproc
	.loc 1 16 1 is_stmt 0 view .LVU1
	endbr64	
	pushq	%rbp	#
	.cfi_def_cfa_offset 16
	.cfi_offset 6, -16
	movq	%rsp, %rbp	#,
	.cfi_def_cfa_register 6
	pushq	%r15	#
	pushq	%r14	#
	pushq	%r13	#
	pushq	%r12	#
	pushq	%rbx	#
	subq	$8, %rsp	#,
	.cfi_offset 15, -24
	.cfi_offset 14, -32
	.cfi_offset 13, -40
	.cfi_offset 12, -48
	.cfi_offset 3, -56
1:	call	*mcount@GOTPCREL(%rip)
# ft_strjoin.c:16: {
	.loc 1 16 1 view .LVU2
	.loc 1 17 2 is_stmt 1 view .LVU3
	.loc 1 18 2 view .LVU4
	.loc 1 19 2 view .LVU5
	.loc 1 21 2 view .LVU6
# ft_strjoin.c:16: {
	.loc 1 16 1 is_stmt 0 view .LVU7
	movq	%rsi, %r14	# tmp99, s2
	movq	%rdi, %r15	# tmp98, s1
# ft_strjoin.c:21: 	size1 = ft_strlen(s1);
	.loc 1 21 10 view .LVU8
	call	ft_strlen@PLT	#
.LVL1:
# ft_strjoin.c:22: 	size2 = ft_strlen(s2);
	.loc 1 22 10 view .LVU9
	movq	%r14, %rdi	# s2,
# ft_strjoin.c:21: 	size1 = ft_strlen(s1);
	.loc 1 21 10 view .LVU10
	movq	%rax, %rbx	# tmp100, size1
.LVL2:
	.loc 1 22 2 is_stmt 1 view .LVU11
# ft_strjoin.c:22: 	size2 = ft_strlen(s2);
	.loc 1 22 10 is_stmt 0 view .LVU12
	call	ft_strlen@PLT	#
.LVL3:
# ft_strjoin.c:23: 	new_str = (char *) ft_calloc((size1 + size2 + 1), sizeof(char));
	.loc 1 23 21 view .LVU13
	movl	$1, %esi	#,
	leaq	1(%rbx,%rax), %rdi	#, tmp93
# ft_strjoin.c:22: 	size2 = ft_strlen(s2);
	.loc 1 22 10 view .LVU14
	movq	%rax, %r13	# tmp101, size2
.LVL4:
	.loc 1 23 2 is_stmt 1 view .LVU15
# ft_strjoin.c:23: 	new_str = (char *) ft_calloc((size1 + size2 + 1), sizeof(char));
	.loc 1 23 21 is_stmt 0 view .LVU16
	call	ft_calloc@PLT	#
.LVL5:
	.loc 1 23 21 view .LVU17
	movq	%rax, %r12	# tmp102, <retval>
.LVL6:
	.loc 1 24 2 is_stmt 1 view .LVU18
# ft_strjoin.c:24: 	if (!new_str)
	.loc 1 24 5 is_stmt 0 view .LVU19
	testq	%rax, %rax	# <retval>
	je	.L1	#,
	.loc 1 26 2 is_stmt 1 view .LVU20
	leaq	1(%rbx), %rdx	#, tmp94
	movq	%r15, %rsi	# s1,
	movq	%rax, %rdi	# <retval>,
	call	ft_strlcpy@PLT	#
.LVL7:
	.loc 1 27 2 view .LVU21
	leaq	1(%r13), %rdx	#, tmp95
	leaq	(%r12,%rbx), %rdi	#, tmp96
	movq	%r14, %rsi	# s2,
	call	ft_strlcpy@PLT	#
.LVL8:
	.loc 1 28 2 view .LVU22
.L1:
# ft_strjoin.c:29: }
	.loc 1 29 1 is_stmt 0 view .LVU23
	addq	$8, %rsp	#,
	movq	%r12, %rax	# <retval>,
	popq	%rbx	#
.LVL9:
	.loc 1 29 1 view .LVU24
	popq	%r12	#
.LVL10:
	.loc 1 29 1 view .LVU25
	popq	%r13	#
.LVL11:
	.loc 1 29 1 view .LVU26
	popq	%r14	#
.LVL12:
	.loc 1 29 1 view .LVU27
	popq	%r15	#
.LVL13:
	.loc 1 29 1 view .LVU28
	popq	%rbp	#
	.cfi_def_cfa 7, 8
	ret	
	.cfi_endproc
.LFE51:
	.size	ft_strjoin, .-ft_strjoin
	.p2align 4
	.globl	ft_memjoin
	.type	ft_memjoin, @function
ft_memjoin:
.LVL14:
.LFB52:
	.loc 1 32 1 is_stmt 1 view -0
	.cfi_startproc
	.loc 1 32 1 is_stmt 0 view .LVU30
	endbr64	
	pushq	%rbp	#
	.cfi_def_cfa_offset 16
	.cfi_offset 6, -16
	movq	%rsp, %rbp	#,
	.cfi_def_cfa_register 6
	pushq	%r15	#
	pushq	%r14	#
	pushq	%r13	#
	pushq	%r12	#
	pushq	%rbx	#
	subq	$8, %rsp	#,
	.cfi_offset 15, -24
	.cfi_offset 14, -32
	.cfi_offset 13, -40
	.cfi_offset 12, -48
	.cfi_offset 3, -56
1:	call	*mcount@GOTPCREL(%rip)
# ft_strjoin.c:32: {
	.loc 1 32 1 view .LVU31
	.loc 1 33 2 is_stmt 1 view .LVU32
	.loc 1 35 2 view .LVU33
# ft_strjoin.c:32: {
	.loc 1 32 1 is_stmt 0 view .LVU34
	movslq	%edx, %rbx	# tmp102,
	movq	%rdi, %r15	# tmp100, src1
	movq	%rsi, %r14	# tmp101, src2
	movl	%ecx, %r13d	# tmp103, size2
# ft_strjoin.c:35: 	return_val = malloc((size1 + size2) * 2);
	.loc 1 35 29 view .LVU35
	leal	(%rbx,%rcx), %edi	#, tmp93
.LVL15:
# ft_strjoin.c:35: 	return_val = malloc((size1 + size2) * 2);
	.loc 1 35 38 view .LVU36
	addl	%edi, %edi	# tmp94
# ft_strjoin.c:35: 	return_val = malloc((size1 + size2) * 2);
	.loc 1 35 15 view .LVU37
	movslq	%edi, %rdi	# tmp94, tmp95
	call	malloc@PLT	#
.LVL16:
	.loc 1 35 15 view .LVU38
	movq	%rax, %r12	# tmp104, <retval>
.LVL17:
	.loc 1 36 2 is_stmt 1 view .LVU39
# ft_strjoin.c:36: 	if (!return_val)
	.loc 1 36 5 is_stmt 0 view .LVU40
	testq	%rax, %rax	# <retval>
	je	.L7	#,
	.loc 1 38 2 is_stmt 1 view .LVU41
	movq	%rbx, %rdx	# _4,
	movq	%r15, %rsi	# src1,
	movq	%rax, %rdi	# <retval>,
	call	ft_memcpy@PLT	#
.LVL18:
	.loc 1 39 2 view .LVU42
	movslq	%r13d, %rdx	# size2, size2
# ft_strjoin.c:39: 	ft_memcpy(return_val + size1, src2, size2);
	.loc 1 39 23 is_stmt 0 view .LVU43
	leaq	(%r12,%rbx), %rdi	#, tmp98
# ft_strjoin.c:39: 	ft_memcpy(return_val + size1, src2, size2);
	.loc 1 39 2 view .LVU44
	movq	%r14, %rsi	# src2,
	call	ft_memcpy@PLT	#
.LVL19:
	.loc 1 40 2 is_stmt 1 view .LVU45
.L7:
# ft_strjoin.c:41: }
	.loc 1 41 1 is_stmt 0 view .LVU46
	addq	$8, %rsp	#,
	movq	%r12, %rax	# <retval>,
	popq	%rbx	#
.LVL20:
	.loc 1 41 1 view .LVU47
	popq	%r12	#
.LVL21:
	.loc 1 41 1 view .LVU48
	popq	%r13	#
.LVL22:
	.loc 1 41 1 view .LVU49
	popq	%r14	#
.LVL23:
	.loc 1 41 1 view .LVU50
	popq	%r15	#
.LVL24:
	.loc 1 41 1 view .LVU51
	popq	%rbp	#
	.cfi_def_cfa 7, 8
	ret	
	.cfi_endproc
.LFE52:
	.size	ft_memjoin, .-ft_memjoin
	.p2align 4
	.globl	ft_strjoin_inplace
	.type	ft_strjoin_inplace, @function
ft_strjoin_inplace:
.LVL25:
.LFB53:
	.loc 1 45 1 is_stmt 1 view -0
	.cfi_startproc
	.loc 1 45 1 is_stmt 0 view .LVU53
	endbr64	
	pushq	%rbp	#
	.cfi_def_cfa_offset 16
	.cfi_offset 6, -16
	movq	%rsp, %rbp	#,
	.cfi_def_cfa_register 6
	pushq	%r15	#
	pushq	%r14	#
	pushq	%r13	#
	pushq	%r12	#
	pushq	%rbx	#
	subq	$8, %rsp	#,
	.cfi_offset 15, -24
	.cfi_offset 14, -32
	.cfi_offset 13, -40
	.cfi_offset 12, -48
	.cfi_offset 3, -56
1:	call	*mcount@GOTPCREL(%rip)
# ft_strjoin.c:45: {
	.loc 1 45 1 view .LVU54
	.loc 1 46 2 is_stmt 1 view .LVU55
	.loc 1 47 2 view .LVU56
	.loc 1 48 2 view .LVU57
	.loc 1 50 2 view .LVU58
# ft_strjoin.c:45: {
	.loc 1 45 1 is_stmt 0 view .LVU59
	movq	%rdi, %r12	# tmp107, s1
	movq	%rsi, %rbx	# tmp108, s2
# ft_strjoin.c:50: 	if (!s2 || !*s2)
	.loc 1 50 5 view .LVU60
	testq	%rsi, %rsi	# s2
	je	.L13	#,
# ft_strjoin.c:50: 	if (!s2 || !*s2)
	.loc 1 50 10 discriminator 1 view .LVU61
	cmpb	$0, (%rsi)	#, *s2_16(D)
	je	.L13	#,
	.loc 1 52 2 is_stmt 1 view .LVU62
.LVL26:
	.loc 1 53 2 view .LVU63
	.loc 1 54 2 view .LVU64
# ft_strjoin.c:54: 	if (*s1)
	.loc 1 54 6 is_stmt 0 view .LVU65
	movq	(%rdi), %rdi	# *s1_18(D), _2
.LVL27:
# ft_strjoin.c:52: 	size1 = 0;
	.loc 1 52 8 view .LVU66
	xorl	%r13d, %r13d	# size1
# ft_strjoin.c:54: 	if (*s1)
	.loc 1 54 5 view .LVU67
	testq	%rdi, %rdi	# _2
	je	.L14	#,
	.loc 1 55 3 is_stmt 1 view .LVU68
# ft_strjoin.c:55: 		size1 = ft_strlen(*s1);
	.loc 1 55 11 is_stmt 0 view .LVU69
	call	ft_strlen@PLT	#
.LVL28:
	.loc 1 55 11 view .LVU70
	movq	%rax, %r13	# tmp109, size1
.LVL29:
.L14:
	.loc 1 56 2 is_stmt 1 view .LVU71
	.loc 1 57 3 view .LVU72
# ft_strjoin.c:57: 		size2 = ft_strlen(s2);
	.loc 1 57 11 is_stmt 0 view .LVU73
	movq	%rbx, %rdi	# s2,
	call	ft_strlen@PLT	#
.LVL30:
# ft_strjoin.c:58: 	new_str = (char *) ft_calloc((size1 + size2 + 1), sizeof(char));
	.loc 1 58 21 view .LVU74
	movl	$1, %esi	#,
	leaq	1(%r13,%rax), %rdi	#, tmp99
# ft_strjoin.c:57: 		size2 = ft_strlen(s2);
	.loc 1 57 11 view .LVU75
	movq	%rax, %r15	# tmp110, size2
.LVL31:
	.loc 1 58 2 is_stmt 1 view .LVU76
# ft_strjoin.c:58: 	new_str = (char *) ft_calloc((size1 + size2 + 1), sizeof(char));
	.loc 1 58 21 is_stmt 0 view .LVU77
	call	ft_calloc@PLT	#
.LVL32:
	.loc 1 58 21 view .LVU78
	movq	%rax, %r14	# tmp111, new_str
.LVL33:
	.loc 1 59 2 is_stmt 1 view .LVU79
# ft_strjoin.c:59: 	if (!new_str)
	.loc 1 59 5 is_stmt 0 view .LVU80
	testq	%rax, %rax	# new_str
	je	.L22	#,
	.loc 1 65 2 is_stmt 1 view .LVU81
	movq	(%r12), %rsi	# *s1_18(D), *s1_18(D)
	leaq	1(%r13), %rdx	#, tmp101
	movq	%rax, %rdi	# new_str,
	call	ft_strlcpy@PLT	#
.LVL34:
	.loc 1 66 2 view .LVU82
	leaq	1(%r15), %rdx	#, tmp103
	leaq	(%r14,%r13), %rdi	#, tmp104
	movq	%rbx, %rsi	# s2,
	call	ft_strlcpy@PLT	#
.LVL35:
	.loc 1 67 2 view .LVU83
	movq	(%r12), %rdi	# *s1_18(D), *s1_18(D)
	call	free@PLT	#
.LVL36:
	.loc 1 68 2 view .LVU84
# ft_strjoin.c:68: 	*s1 = new_str;
	.loc 1 68 6 is_stmt 0 view .LVU85
	movq	%r14, (%r12)	# new_str, *s1_18(D)
	.loc 1 69 2 is_stmt 1 view .LVU86
.LVL37:
.L13:
# ft_strjoin.c:51: 		return (true);
	.loc 1 51 10 is_stmt 0 view .LVU87
	movl	$1, %eax	#, <retval>
.L12:
# ft_strjoin.c:70: }
	.loc 1 70 1 view .LVU88
	addq	$8, %rsp	#,
	popq	%rbx	#
.LVL38:
	.loc 1 70 1 view .LVU89
	popq	%r12	#
.LVL39:
	.loc 1 70 1 view .LVU90
	popq	%r13	#
	popq	%r14	#
	popq	%r15	#
	popq	%rbp	#
	.cfi_remember_state
	.cfi_def_cfa 7, 8
	ret	
.LVL40:
	.p2align 4,,10
	.p2align 3
.L22:
	.cfi_restore_state
	.loc 1 61 3 is_stmt 1 view .LVU91
	movq	(%r12), %rdi	# *s1_18(D), *s1_18(D)
	call	free@PLT	#
.LVL41:
	.loc 1 62 3 view .LVU92
# ft_strjoin.c:62: 		*s1 = NULL;
	.loc 1 62 7 is_stmt 0 view .LVU93
	movq	$0, (%r12)	#, *s1_18(D)
	.loc 1 63 3 is_stmt 1 view .LVU94
# ft_strjoin.c:63: 		return (false);
	.loc 1 63 10 is_stmt 0 view .LVU95
	xorl	%eax, %eax	# <retval>
	jmp	.L12	#
	.cfi_endproc
.LFE53:
	.size	ft_strjoin_inplace, .-ft_strjoin_inplace
	.p2align 4
	.globl	ft_strjoin_inplace_char
	.type	ft_strjoin_inplace_char, @function
ft_strjoin_inplace_char:
.LVL42:
.LFB54:
	.loc 1 74 1 is_stmt 1 view -0
	.cfi_startproc
	.loc 1 74 1 is_stmt 0 view .LVU97
	endbr64	
	pushq	%rbp	#
	.cfi_def_cfa_offset 16
	.cfi_offset 6, -16
	movq	%rsp, %rbp	#,
	.cfi_def_cfa_register 6
	pushq	%r15	#
	pushq	%r14	#
	pushq	%r13	#
	pushq	%r12	#
	pushq	%rbx	#
	subq	$8, %rsp	#,
	.cfi_offset 15, -24
	.cfi_offset 14, -32
	.cfi_offset 13, -40
	.cfi_offset 12, -48
	.cfi_offset 3, -56
1:	call	*mcount@GOTPCREL(%rip)
# ft_strjoin.c:74: {
	.loc 1 74 1 view .LVU98
	.loc 1 75 2 is_stmt 1 view .LVU99
	.loc 1 76 2 view .LVU100
	.loc 1 77 2 view .LVU101
	.loc 1 79 2 view .LVU102
# ft_strjoin.c:79: 	if (!s1 || !s2)
	.loc 1 79 6 is_stmt 0 view .LVU103
	testq	%rdi, %rdi	# s1
# ft_strjoin.c:74: {
	.loc 1 74 1 view .LVU104
	movq	%rdi, %rbx	# tmp105, s1
	movl	%esi, %r15d	# tmp106, s2
# ft_strjoin.c:79: 	if (!s1 || !s2)
	.loc 1 79 6 view .LVU105
	sete	%r12b	#, tmp99
# ft_strjoin.c:79: 	if (!s1 || !s2)
	.loc 1 79 13 view .LVU106
	testb	%sil, %sil	# s2
	sete	%al	#, tmp101
# ft_strjoin.c:79: 	if (!s1 || !s2)
	.loc 1 79 5 view .LVU107
	orb	%al, %r12b	# tmp101, <retval>
	jne	.L24	#,
	.loc 1 81 2 is_stmt 1 view .LVU108
.LVL43:
	.loc 1 82 2 view .LVU109
	.loc 1 83 2 view .LVU110
# ft_strjoin.c:83: 	if (*s1)
	.loc 1 83 6 is_stmt 0 view .LVU111
	movq	(%rdi), %rdi	# *s1_19(D), _4
.LVL44:
# ft_strjoin.c:83: 	if (*s1)
	.loc 1 83 5 view .LVU112
	testq	%rdi, %rdi	# _4
	je	.L29	#,
	.loc 1 84 3 is_stmt 1 view .LVU113
# ft_strjoin.c:84: 		size1 = ft_strlen(*s1);
	.loc 1 84 11 is_stmt 0 view .LVU114
	call	ft_strlen@PLT	#
.LVL45:
	.loc 1 84 11 view .LVU115
	movq	%rax, %r14	# tmp107, size1
.LVL46:
# ft_strjoin.c:85: 	new_str = (char *) ft_calloc((size1 + size2 + 1), sizeof(char));
	.loc 1 85 21 view .LVU116
	leaq	2(%rax), %rdi	#, _5
.LVL47:
.L25:
	.loc 1 85 2 is_stmt 1 view .LVU117
# ft_strjoin.c:85: 	new_str = (char *) ft_calloc((size1 + size2 + 1), sizeof(char));
	.loc 1 85 21 is_stmt 0 view .LVU118
	movl	$1, %esi	#,
	call	ft_calloc@PLT	#
.LVL48:
	movq	%rax, %r13	# tmp108, new_str
.LVL49:
	.loc 1 86 2 is_stmt 1 view .LVU119
# ft_strjoin.c:86: 	if (!new_str)
	.loc 1 86 5 is_stmt 0 view .LVU120
	testq	%rax, %rax	# new_str
	je	.L33	#,
	.loc 1 92 2 is_stmt 1 view .LVU121
# ft_strjoin.c:92: 	if (*s1)
	.loc 1 92 6 is_stmt 0 view .LVU122
	movq	(%rbx), %rsi	# *s1_19(D), _8
# ft_strjoin.c:93: 		ft_strlcpy(new_str, *s1, size1 + 1);
	.loc 1 93 3 view .LVU123
	leaq	1(%r14), %r12	#, _36
# ft_strjoin.c:92: 	if (*s1)
	.loc 1 92 5 view .LVU124
	testq	%rsi, %rsi	# _8
	je	.L28	#,
	.loc 1 93 3 is_stmt 1 view .LVU125
	movq	%r12, %rdx	# _36,
	movq	%rax, %rdi	# new_str,
	call	ft_strlcpy@PLT	#
.LVL50:
.L28:
	.loc 1 94 2 view .LVU126
# ft_strjoin.c:94: 	new_str[size1] = s2;
	.loc 1 94 17 is_stmt 0 view .LVU127
	movb	%r15b, 0(%r13,%r14)	# s2, *_10
	.loc 1 95 2 is_stmt 1 view .LVU128
	.loc 1 96 3 view .LVU129
# ft_strjoin.c:96: 		new_str[size1 + 1] = 0;
	.loc 1 96 22 is_stmt 0 view .LVU130
	movb	$0, 0(%r13,%r12)	#, *_12
	.loc 1 97 2 is_stmt 1 view .LVU131
	movq	(%rbx), %rdi	# *s1_19(D), *s1_19(D)
	call	free@PLT	#
.LVL51:
	.loc 1 98 2 view .LVU132
# ft_strjoin.c:98: 	*s1 = new_str;
	.loc 1 98 6 is_stmt 0 view .LVU133
	movq	%r13, (%rbx)	# new_str, *s1_19(D)
	.loc 1 99 2 is_stmt 1 view .LVU134
.LVL52:
.L24:
# ft_strjoin.c:80: 		return (true);
	.loc 1 80 10 is_stmt 0 view .LVU135
	movl	$1, %r12d	#, <retval>
.L23:
# ft_strjoin.c:100: }
	.loc 1 100 1 view .LVU136
	addq	$8, %rsp	#,
	movl	%r12d, %eax	# <retval>,
	popq	%rbx	#
.LVL53:
	.loc 1 100 1 view .LVU137
	popq	%r12	#
	popq	%r13	#
	popq	%r14	#
	popq	%r15	#
.LVL54:
	.loc 1 100 1 view .LVU138
	popq	%rbp	#
	.cfi_remember_state
	.cfi_def_cfa 7, 8
	ret	
.LVL55:
	.p2align 4,,10
	.p2align 3
.L29:
	.cfi_restore_state
	.loc 1 100 1 view .LVU139
	movl	$2, %edi	#, _5
# ft_strjoin.c:81: 	size1 = 0;
	.loc 1 81 8 view .LVU140
	xorl	%r14d, %r14d	# size1
	jmp	.L25	#
.LVL56:
	.p2align 4,,10
	.p2align 3
.L33:
	.loc 1 88 3 is_stmt 1 view .LVU141
	movq	(%rbx), %rdi	# *s1_19(D), *s1_19(D)
	call	free@PLT	#
.LVL57:
	.loc 1 89 3 view .LVU142
# ft_strjoin.c:89: 		*s1 = NULL;
	.loc 1 89 7 is_stmt 0 view .LVU143
	movq	$0, (%rbx)	#, *s1_19(D)
	.loc 1 90 3 is_stmt 1 view .LVU144
# ft_strjoin.c:90: 		return (false);
	.loc 1 90 10 is_stmt 0 view .LVU145
	jmp	.L23	#
	.cfi_endproc
.LFE54:
	.size	ft_strjoin_inplace_char, .-ft_strjoin_inplace_char
.Letext0:
	.file 2 "/usr/lib/gcc/x86_64-linux-gnu/13/include/stddef.h"
	.file 3 "/usr/include/x86_64-linux-gnu/bits/types.h"
	.file 4 "/usr/include/x86_64-linux-gnu/bits/stdint-uintn.h"
	.file 5 "../includes/libft.h"
	.file 6 "/usr/include/stdlib.h"
	.section	.note.GNU-stack,"",@progbits
	.section	.note.gnu.property,"a"
	.align 8
	.long	1f - 0f
	.long	4f - 1f
	.long	5
0:
	.string	"GNU"
1:
	.align 8
	.long	0xc0000002
	.long	3f - 2f
2:
	.long	0x3
3:
	.align 8
4:

ft_strtrim.o/   0           0     0     644     33430     `
	.file	"ft_strtrim.c"
# GNU C17 (Ubuntu 13.2.0-23ubuntu4) version 13.2.0 (x86_64-linux-gnu)
#	compiled by GNU C version 13.2.0, GMP version 6.3.0, MPFR version 4.2.1, MPC version 1.3.1, isl version isl-0.26-GMP

# GGC heuristics: --param ggc-min-expand=100 --param ggc-min-heapsize=131072
# options passed: -march=skylake -mmmx -mpopcnt -msse -msse2 -msse3 -mssse3 -msse4.1 -msse4.2 -mavx -mno-sse4a -mno-fma4 -mno-xop -mfma -mno-avx512f -mbmi -mbmi2 -maes -mpclmul -mno-avx512vl -mno-avx512bw -mno-avx512dq -mno-avx512cd -mno-avx512er -mno-avx512pf -mno-avx512vbmi -mno-avx512ifma -mno-avx5124vnniw -mno-avx5124fmaps -mno-avx512vpopcntdq -mno-avx512vbmi2 -mno-gfni -mno-vpclmulqdq -mno-avx512vnni -mno-avx512bitalg -mno-avx512bf16 -mno-avx512vp2intersect -mno-3dnow -madx -mabm -mno-cldemote -mclflushopt -mno-clwb -mno-clzero -mcx16 -mno-enqcmd -mf16c -mfsgsbase -mfxsr -mhle -msahf -mno-lwp -mlzcnt -mmovbe -mno-movdir64b -mno-movdiri -mno-mwaitx -mno-pconfig -mno-pku -mno-prefetchwt1 -mprfchw -mno-ptwrite -mno-rdpid -mrdrnd -mrdseed -mrtm -mno-serialize -msgx -mno-sha -mno-shstk -mno-tbm -mno-tsxldtrk -mno-vaes -mno-waitpkg -mno-wbnoinvd -mxsave -mxsavec -mxsaveopt -mxsaves -mno-amx-tile -mno-amx-int8 -mno-amx-bf16 -mno-uintr -mno-hreset -mno-kl -mno-widekl -mno-avxvnni -mno-avx512fp16 -mno-avxifma -mno-avxvnniint8 -mno-avxneconvert -mno-cmpccxadd -mno-amx-fp16 -mno-prefetchi -mno-raoint -mno-amx-complex --param=l1-cache-size=32 --param=l1-cache-line-size=64 --param=l2-cache-size=16384 -mtune=skylake -mavx2 -g -Ofast -p -fasynchronous-unwind-tables -fstack-protector-strong -fstack-clash-protection -fcf-protection
	.text
.Ltext0:
	.file 0 "/home/fabi/42/cub3D/libft" "ft_strtrim.c"
	.p2align 4
	.globl	ft_strtrim
	.type	ft_strtrim, @function
ft_strtrim:
.LVL0:
.LFB52:
	.file 1 "ft_strtrim.c"
	.loc 1 27 1 view -0
	.cfi_startproc
	.loc 1 27 1 is_stmt 0 view .LVU1
	endbr64	
	pushq	%rbp	#
	.cfi_def_cfa_offset 16
	.cfi_offset 6, -16
	movq	%rsp, %rbp	#,
	.cfi_def_cfa_register 6
	pushq	%r14	#
	pushq	%r13	#
	pushq	%r12	#
	pushq	%rbx	#
	.cfi_offset 14, -24
	.cfi_offset 13, -32
	.cfi_offset 12, -40
	.cfi_offset 3, -48
1:	call	*mcount@GOTPCREL(%rip)
# ft_strtrim.c:27: {
	.loc 1 27 1 view .LVU2
	.loc 1 28 2 is_stmt 1 view .LVU3
	.loc 1 29 2 view .LVU4
	.loc 1 30 2 view .LVU5
	.loc 1 32 2 view .LVU6
# ft_strtrim.c:27: {
	.loc 1 27 1 is_stmt 0 view .LVU7
	movq	%rdi, %rbx	# tmp133, s1
	movq	%rsi, %r13	# tmp134, set
# ft_strtrim.c:32: 	if (!s1)
	.loc 1 32 5 view .LVU8
	testq	%rdi, %rdi	# s1
	je	.L15	#,
	.loc 1 34 2 is_stmt 1 view .LVU9
# ft_strtrim.c:34: 	len = ft_strlen(s1);
	.loc 1 34 8 is_stmt 0 view .LVU10
	call	ft_strlen@PLT	#
.LVL1:
# ft_strtrim.c:35: 	while (*s1 && in_set(set, *s1))
	.loc 1 35 9 view .LVU11
	movzbl	(%rbx), %ecx	# *s1_26(D), _2
# ft_strtrim.c:34: 	len = ft_strlen(s1);
	.loc 1 34 6 discriminator 1 view .LVU12
	movl	%eax, %r12d	# tmp135, len
.LVL2:
	.loc 1 35 2 is_stmt 1 view .LVU13
	.loc 1 35 13 view .LVU14
	testb	%cl, %cl	# _2
	je	.L4	#,
.LBB6:
.LBB7:
# ft_strtrim.c:17: 	while (*set)
	.loc 1 17 9 is_stmt 0 view .LVU15
	movzbl	0(%r13), %esi	# *set_30(D), _62
.LVL3:
	.loc 1 17 9 is_stmt 1 view .LVU16
	testb	%sil, %sil	# _62
	je	.L4	#,
.LVL4:
	.p2align 4,,10
	.p2align 3
.L5:
	.loc 1 17 9 is_stmt 0 view .LVU17
.LBE7:
.LBE6:
# ft_strtrim.c:27: {
	.loc 1 27 1 view .LVU18
	movq	%r13, %rdx	# set, set
.LBB10:
.LBB8:
# ft_strtrim.c:17: 	while (*set)
	.loc 1 17 9 view .LVU19
	movl	%esi, %eax	# _62, _31
	jmp	.L10	#
.LVL5:
	.p2align 4,,10
	.p2align 3
.L41:
	.loc 1 21 3 is_stmt 1 view .LVU20
# ft_strtrim.c:17: 	while (*set)
	.loc 1 17 9 is_stmt 0 view .LVU21
	movzbl	1(%rdx), %eax	# MEM[(const char *)set_43], _31
# ft_strtrim.c:21: 		set++;
	.loc 1 21 6 view .LVU22
	incq	%rdx	# set
.LVL6:
	.loc 1 17 9 is_stmt 1 view .LVU23
	testb	%al, %al	# _31
	je	.L4	#,
.LVL7:
.L10:
	.loc 1 19 3 view .LVU24
# ft_strtrim.c:19: 		if (c == *set)
	.loc 1 19 6 is_stmt 0 view .LVU25
	cmpb	%cl, %al	# _2, _31
	jne	.L41	#,
.LVL8:
	.loc 1 19 6 view .LVU26
.LBE8:
.LBE10:
	.loc 1 37 3 is_stmt 1 view .LVU27
# ft_strtrim.c:35: 	while (*s1 && in_set(set, *s1))
	.loc 1 35 9 is_stmt 0 view .LVU28
	movzbl	1(%rbx), %ecx	# MEM[(const char *)s1_33], _2
# ft_strtrim.c:38: 		s1++;
	.loc 1 38 5 view .LVU29
	incq	%rbx	# s1
# ft_strtrim.c:37: 		len--;
	.loc 1 37 6 view .LVU30
	decl	%r12d	# len
.LVL9:
	.loc 1 38 3 is_stmt 1 view .LVU31
	.loc 1 35 13 view .LVU32
	testb	%cl, %cl	# _2
	jne	.L5	#,
.LVL10:
	.p2align 4,,10
	.p2align 3
.L4:
	.loc 1 40 17 view .LVU33
	testl	%r12d, %r12d	# len
	jle	.L6	#,
.LBB11:
.LBB12:
# ft_strtrim.c:17: 	while (*set)
	.loc 1 17 9 is_stmt 0 view .LVU34
	movzbl	0(%r13), %edi	# *set_30(D), _56
	movslq	%r12d, %rsi	# len, ivtmp.23
	movl	%r12d, %r14d	# len, _10
	.loc 1 17 9 view .LVU35
.LBE12:
.LBE11:
# ft_strtrim.c:40: 	while (len > 0 && in_set(set, s1[len - 1]))
	.loc 1 40 34 discriminator 1 view .LVU36
	movzbl	-1(%rbx,%rsi), %ecx	# MEM[(const char *)s1_64 + -1B + ivtmp.23_76 * 1], _82
.LVL11:
.LBB16:
.LBI11:
	.loc 1 15 12 is_stmt 1 view .LVU37
.LBB13:
	.loc 1 17 2 view .LVU38
	.loc 1 17 9 view .LVU39
	testb	%dil, %dil	# _56
	je	.L39	#,
.LVL12:
	.p2align 4,,10
	.p2align 3
.L7:
	.loc 1 17 9 is_stmt 0 view .LVU40
.LBE13:
.LBE16:
.LBB17:
.LBB9:
	movq	%r13, %rdx	# set, set
.LBE9:
.LBE17:
.LBB18:
.LBB14:
	movl	%edi, %eax	# _56, _45
	jmp	.L14	#
.LVL13:
	.p2align 4,,10
	.p2align 3
.L42:
	.loc 1 21 3 is_stmt 1 view .LVU41
# ft_strtrim.c:17: 	while (*set)
	.loc 1 17 9 is_stmt 0 view .LVU42
	movzbl	1(%rdx), %eax	# MEM[(const char *)set_47], _45
# ft_strtrim.c:21: 		set++;
	.loc 1 21 6 view .LVU43
	incq	%rdx	# set
.LVL14:
	.loc 1 17 9 is_stmt 1 view .LVU44
	testb	%al, %al	# _45
	je	.L39	#,
.LVL15:
.L14:
	.loc 1 19 3 view .LVU45
# ft_strtrim.c:19: 		if (c == *set)
	.loc 1 19 6 is_stmt 0 view .LVU46
	cmpb	%cl, %al	# _82, _45
	jne	.L42	#,
.LVL16:
	.loc 1 19 6 view .LVU47
.LBE14:
.LBE18:
	.loc 1 41 3 is_stmt 1 view .LVU48
	.loc 1 40 17 view .LVU49
	decq	%rsi	# ivtmp.23
	testl	%esi, %esi	# ivtmp.23
	je	.L11	#,
# ft_strtrim.c:40: 	while (len > 0 && in_set(set, s1[len - 1]))
	.loc 1 40 34 is_stmt 0 discriminator 1 view .LVU50
	movzbl	-1(%rbx,%rsi), %ecx	# MEM[(const char *)s1_64 + -1B + ivtmp.23_49 * 1], _82
	movl	%esi, %r14d	# ivtmp.23, _10
	movl	%esi, %r12d	# ivtmp.23, len
.LVL17:
.LBB19:
	.loc 1 15 12 is_stmt 1 view .LVU51
.LBB15:
	.loc 1 17 2 view .LVU52
	.loc 1 17 9 view .LVU53
	jmp	.L7	#
.LVL18:
	.p2align 4,,10
	.p2align 3
.L39:
	.loc 1 17 9 is_stmt 0 view .LVU54
.LBE15:
.LBE19:
# ft_strtrim.c:42: 	trim = (char *)malloc(sizeof(char) * (len + 1));
	.loc 1 42 44 view .LVU55
	leal	1(%r12), %edi	#, tmp114
# ft_strtrim.c:42: 	trim = (char *)malloc(sizeof(char) * (len + 1));
	.loc 1 42 17 view .LVU56
	movslq	%edi, %rdi	# tmp114, _15
.LVL19:
	.loc 1 42 2 is_stmt 1 view .LVU57
# ft_strtrim.c:42: 	trim = (char *)malloc(sizeof(char) * (len + 1));
	.loc 1 42 17 is_stmt 0 view .LVU58
	call	malloc@PLT	#
.LVL20:
	movq	%rax, %rcx	# tmp138, <retval>
.LVL21:
	.loc 1 43 2 is_stmt 1 view .LVU59
# ft_strtrim.c:43: 	if (!trim)
	.loc 1 43 5 is_stmt 0 view .LVU60
	testq	%rax, %rax	# <retval>
	je	.L15	#,
	.loc 1 45 2 is_stmt 1 view .LVU61
.LVL22:
	.loc 1 46 2 view .LVU62
# ft_strtrim.c:46: 	trim[len] = '\0';
	.loc 1 46 6 is_stmt 0 view .LVU63
	movslq	%r12d, %rdx	# len, len
# ft_strtrim.c:48: 		*(trim++) = *(s1++);
	.loc 1 48 13 view .LVU64
	movq	%rcx, %rdi	# <retval>,
	movq	%rbx, %rsi	# s1,
# ft_strtrim.c:46: 	trim[len] = '\0';
	.loc 1 46 12 view .LVU65
	movb	$0, (%rcx,%rdx)	#, *_67
	.loc 1 47 2 is_stmt 1 view .LVU66
.LVL23:
	.loc 1 47 15 view .LVU67
# ft_strtrim.c:48: 		*(trim++) = *(s1++);
	.loc 1 48 13 is_stmt 0 view .LVU68
	call	memcpy@PLT	#
.LVL24:
	.loc 1 48 13 view .LVU69
	movq	%rax, %rcx	#, <retval>
.LVL25:
.L1:
# ft_strtrim.c:50: }
	.loc 1 50 1 view .LVU70
	popq	%rbx	#
	movq	%rcx, %rax	# <retval>,
	popq	%r12	#
	popq	%r13	#
.LVL26:
	.loc 1 50 1 view .LVU71
	popq	%r14	#
	popq	%rbp	#
	.cfi_remember_state
	.cfi_def_cfa 7, 8
	ret	
.LVL27:
.L15:
	.cfi_restore_state
	.loc 1 50 1 view .LVU72
	popq	%rbx	#
# ft_strtrim.c:33: 		return (NULL);
	.loc 1 33 10 view .LVU73
	xorl	%ecx, %ecx	# <retval>
# ft_strtrim.c:50: }
	.loc 1 50 1 view .LVU74
	popq	%r12	#
	movq	%rcx, %rax	# <retval>,
	popq	%r13	#
.LVL28:
	.loc 1 50 1 view .LVU75
	popq	%r14	#
	popq	%rbp	#
	.cfi_remember_state
	.cfi_def_cfa 7, 8
	ret	
.LVL29:
.L6:
	.cfi_restore_state
	.loc 1 42 2 is_stmt 1 view .LVU76
# ft_strtrim.c:42: 	trim = (char *)malloc(sizeof(char) * (len + 1));
	.loc 1 42 44 is_stmt 0 view .LVU77
	leal	1(%r12), %edi	#, tmp115
# ft_strtrim.c:42: 	trim = (char *)malloc(sizeof(char) * (len + 1));
	.loc 1 42 17 view .LVU78
	movslq	%edi, %rdi	# tmp115, tmp116
	call	malloc@PLT	#
.LVL30:
	movq	%rax, %rcx	# tmp136, <retval>
.LVL31:
	.loc 1 43 2 is_stmt 1 view .LVU79
# ft_strtrim.c:43: 	if (!trim)
	.loc 1 43 5 is_stmt 0 view .LVU80
	testq	%rax, %rax	# <retval>
	je	.L15	#,
	.loc 1 45 2 is_stmt 1 view .LVU81
.LVL32:
	.loc 1 46 2 view .LVU82
# ft_strtrim.c:46: 	trim[len] = '\0';
	.loc 1 46 6 is_stmt 0 view .LVU83
	movslq	%r12d, %r12	# len, len
# ft_strtrim.c:46: 	trim[len] = '\0';
	.loc 1 46 12 view .LVU84
	movb	$0, (%rax,%r12)	#, *_53
	.loc 1 47 2 is_stmt 1 view .LVU85
.LVL33:
	.loc 1 47 15 view .LVU86
	.loc 1 47 15 is_stmt 0 view .LVU87
	jmp	.L1	#
.LVL34:
.L11:
	.loc 1 42 2 is_stmt 1 view .LVU88
# ft_strtrim.c:42: 	trim = (char *)malloc(sizeof(char) * (len + 1));
	.loc 1 42 17 is_stmt 0 view .LVU89
	movl	$1, %edi	#,
	call	malloc@PLT	#
.LVL35:
	movq	%rax, %rcx	# tmp137, <retval>
.LVL36:
	.loc 1 43 2 is_stmt 1 view .LVU90
# ft_strtrim.c:43: 	if (!trim)
	.loc 1 43 5 is_stmt 0 view .LVU91
	testq	%rax, %rax	# <retval>
	je	.L15	#,
	.loc 1 45 2 is_stmt 1 view .LVU92
.LVL37:
	.loc 1 46 2 view .LVU93
# ft_strtrim.c:41: 		len--;
	.loc 1 41 6 is_stmt 0 view .LVU94
	leal	-1(%r14), %eax	#, len
.LVL38:
# ft_strtrim.c:46: 	trim[len] = '\0';
	.loc 1 46 6 view .LVU95
	cltq
# ft_strtrim.c:46: 	trim[len] = '\0';
	.loc 1 46 12 view .LVU96
	movb	$0, (%rcx,%rax)	#, *_5
	.loc 1 47 2 is_stmt 1 view .LVU97
.LVL39:
	.loc 1 47 15 view .LVU98
	.loc 1 47 15 is_stmt 0 view .LVU99
	jmp	.L1	#
	.cfi_endproc
.LFE52:
	.size	ft_strtrim, .-ft_strtrim
	.p2align 4
	.globl	ft_strstrtrim
	.type	ft_strstrtrim, @function
ft_strstrtrim:
.LVL40:
.LFB53:
	.loc 1 53 1 is_stmt 1 view -0
	.cfi_startproc
	.loc 1 53 1 is_stmt 0 view .LVU101
	endbr64	
	pushq	%rbp	#
	.cfi_def_cfa_offset 16
	.cfi_offset 6, -16
	movq	%rsp, %rbp	#,
	.cfi_def_cfa_register 6
	pushq	%r13	#
	pushq	%r12	#
	pushq	%rbx	#
	subq	$24, %rsp	#,
	.cfi_offset 13, -24
	.cfi_offset 12, -32
	.cfi_offset 3, -40
1:	call	*mcount@GOTPCREL(%rip)
# ft_strtrim.c:53: {
	.loc 1 53 1 view .LVU102
	movq	%fs:40, %rax	# MEM[(<address-space-1> long unsigned int *)40B], tmp105
	movq	%rax, -40(%rbp)	# tmp105, D.5751
	xorl	%eax, %eax	# tmp105
	.loc 1 54 2 is_stmt 1 view .LVU103
	.loc 1 56 2 view .LVU104
# ft_strtrim.c:53: {
	.loc 1 53 1 is_stmt 0 view .LVU105
	movq	%rdi, %rbx	# tmp99, s1
	movq	%rsi, %r12	# tmp100, sub
# ft_strtrim.c:56: 	if (!s1)
	.loc 1 56 5 view .LVU106
	testq	%rdi, %rdi	# s1
	je	.L54	#,
	.loc 1 58 2 is_stmt 1 view .LVU107
# ft_strtrim.c:59: 	while (*s1)
	.loc 1 59 9 is_stmt 0 view .LVU108
	cmpb	$0, (%rdi)	#, *s1_15(D)
# ft_strtrim.c:58: 	trim = NULL;
	.loc 1 58 7 view .LVU109
	movq	$0, -48(%rbp)	#, trim
	.loc 1 59 2 is_stmt 1 view .LVU110
	.loc 1 59 9 view .LVU111
	je	.L54	#,
# ft_strtrim.c:67: 			if (!ft_strjoin_inplace_char(&trim, *s1))
	.loc 1 67 9 is_stmt 0 view .LVU112
	leaq	-48(%rbp), %r13	#, tmp98
	jmp	.L52	#
.LVL41:
	.p2align 4,,10
	.p2align 3
.L50:
	.loc 1 69 3 is_stmt 1 view .LVU113
# ft_strtrim.c:69: 		s1++;
	.loc 1 69 5 is_stmt 0 view .LVU114
	incq	%rbx	# s1
.LVL42:
	.loc 1 59 9 is_stmt 1 view .LVU115
	cmpb	$0, (%rbx)	#, *s1_5
	je	.L56	#,
.L52:
	.loc 1 61 3 view .LVU116
# ft_strtrim.c:61: 		if (*s1 && !ft_strncmp(s1, sub, ft_strlen(sub)))
	.loc 1 61 15 is_stmt 0 discriminator 1 view .LVU117
	movq	%r12, %rdi	# sub,
	call	ft_strlen@PLT	#
.LVL43:
	movq	%r12, %rsi	# sub,
	movq	%rbx, %rdi	# s1,
	movq	%rax, %rdx	# tmp101, _2
	call	ft_strncmp@PLT	#
.LVL44:
# ft_strtrim.c:61: 		if (*s1 && !ft_strncmp(s1, sub, ft_strlen(sub)))
	.loc 1 61 11 discriminator 2 view .LVU118
	testl	%eax, %eax	# tmp102
	je	.L57	#,
	.loc 1 66 3 is_stmt 1 view .LVU119
# ft_strtrim.c:66: 		if (*s1)
	.loc 1 66 7 is_stmt 0 view .LVU120
	movsbl	(%rbx), %esi	# *s1_30,
# ft_strtrim.c:66: 		if (*s1)
	.loc 1 66 6 view .LVU121
	testb	%sil, %sil	# _4
	je	.L50	#,
	.loc 1 67 4 is_stmt 1 view .LVU122
# ft_strtrim.c:67: 			if (!ft_strjoin_inplace_char(&trim, *s1))
	.loc 1 67 9 is_stmt 0 view .LVU123
	movq	%r13, %rdi	# tmp98,
	call	ft_strjoin_inplace_char@PLT	#
.LVL45:
# ft_strtrim.c:67: 			if (!ft_strjoin_inplace_char(&trim, *s1))
	.loc 1 67 7 discriminator 1 view .LVU124
	testb	%al, %al	# tmp104
	jne	.L50	#,
.L54:
# ft_strtrim.c:59: 	while (*s1)
	.loc 1 59 9 view .LVU125
	xorl	%eax, %eax	# <retval>
	.loc 1 71 2 is_stmt 1 view .LVU126
# ft_strtrim.c:71: 	return (trim);
	.loc 1 71 9 is_stmt 0 view .LVU127
	jmp	.L43	#
	.p2align 4,,10
	.p2align 3
.L57:
	.loc 1 63 4 is_stmt 1 view .LVU128
# ft_strtrim.c:63: 			s1 += ft_strlen(sub);
	.loc 1 63 10 is_stmt 0 view .LVU129
	movq	%r12, %rdi	# sub,
	call	ft_strlen@PLT	#
.LVL46:
# ft_strtrim.c:63: 			s1 += ft_strlen(sub);
	.loc 1 63 7 discriminator 1 view .LVU130
	addq	%rax, %rbx	# tmp103, s1
.LVL47:
	.loc 1 64 4 is_stmt 1 view .LVU131
	.loc 1 59 9 view .LVU132
	cmpb	$0, (%rbx)	#, *s1_5
	jne	.L52	#,
	.p2align 4,,10
	.p2align 3
.L56:
# ft_strtrim.c:71: 	return (trim);
	.loc 1 71 9 is_stmt 0 view .LVU133
	movq	-48(%rbp), %rax	# trim, <retval>
.L43:
# ft_strtrim.c:72: }
	.loc 1 72 1 view .LVU134
	movq	-40(%rbp), %rdx	# D.5751, tmp106
	subq	%fs:40, %rdx	# MEM[(<address-space-1> long unsigned int *)40B], tmp106
	jne	.L58	#,
	addq	$24, %rsp	#,
	popq	%rbx	#
.LVL48:
	.loc 1 72 1 view .LVU135
	popq	%r12	#
.LVL49:
	.loc 1 72 1 view .LVU136
	popq	%r13	#
	popq	%rbp	#
	.cfi_remember_state
	.cfi_def_cfa 7, 8
	ret	
.LVL50:
.L58:
	.cfi_restore_state
	.loc 1 72 1 view .LVU137
	call	__stack_chk_fail@PLT	#
.LVL51:
	.cfi_endproc
.LFE53:
	.size	ft_strstrtrim, .-ft_strstrtrim
.Letext0:
	.file 2 "../includes/libft.h"
	.file 3 "/usr/include/stdlib.h"
	.file 4 "/usr/lib/gcc/x86_64-linux-gnu/13/include/stddef.h"
	.file 5 "<built-in>"
	.section	.note.GNU-stack,"",@progbits
	.section	.note.gnu.property,"a"
	.align 8
	.long	1f - 0f
	.long	4f - 1f
	.long	5
0:
	.string	"GNU"
1:
	.align 8
	.long	0xc0000002
	.long	3f - 2f
2:
	.long	0x3
3:
	.align 8
4:
ft_split.o/     0           0     0     644     34751     `
	.file	"ft_split.c"
# GNU C17 (Ubuntu 13.2.0-23ubuntu4) version 13.2.0 (x86_64-linux-gnu)
#	compiled by GNU C version 13.2.0, GMP version 6.3.0, MPFR version 4.2.1, MPC version 1.3.1, isl version isl-0.26-GMP

# GGC heuristics: --param ggc-min-expand=100 --param ggc-min-heapsize=131072
# options passed: -march=skylake -mmmx -mpopcnt -msse -msse2 -msse3 -mssse3 -msse4.1 -msse4.2 -mavx -mno-sse4a -mno-fma4 -mno-xop -mfma -mno-avx512f -mbmi -mbmi2 -maes -mpclmul -mno-avx512vl -mno-avx512bw -mno-avx512dq -mno-avx512cd -mno-avx512er -mno-avx512pf -mno-avx512vbmi -mno-avx512ifma -mno-avx5124vnniw -mno-avx5124fmaps -mno-avx512vpopcntdq -mno-avx512vbmi2 -mno-gfni -mno-vpclmulqdq -mno-avx512vnni -mno-avx512bitalg -mno-avx512bf16 -mno-avx512vp2intersect -mno-3dnow -madx -mabm -mno-cldemote -mclflushopt -mno-clwb -mno-clzero -mcx16 -mno-enqcmd -mf16c -mfsgsbase -mfxsr -mhle -msahf -mno-lwp -mlzcnt -mmovbe -mno-movdir64b -mno-movdiri -mno-mwaitx -mno-pconfig -mno-pku -mno-prefetchwt1 -mprfchw -mno-ptwrite -mno-rdpid -mrdrnd -mrdseed -mrtm -mno-serialize -msgx -mno-sha -mno-shstk -mno-tbm -mno-tsxldtrk -mno-vaes -mno-waitpkg -mno-wbnoinvd -mxsave -mxsavec -mxsaveopt -mxsaves -mno-amx-tile -mno-amx-int8 -mno-amx-bf16 -mno-uintr -mno-hreset -mno-kl -mno-widekl -mno-avxvnni -mno-avx512fp16 -mno-avxifma -mno-avxvnniint8 -mno-avxneconvert -mno-cmpccxadd -mno-amx-fp16 -mno-prefetchi -mno-raoint -mno-amx-complex --param=l1-cache-size=32 --param=l1-cache-line-size=64 --param=l2-cache-size=16384 -mtune=skylake -mavx2 -g -Ofast -p -fasynchronous-unwind-tables -fstack-protector-strong -fstack-clash-protection -fcf-protection
	.text
.Ltext0:
	.file 0 "/home/fabi/42/cub3D/libft" "ft_split.c"
	.p2align 4
	.globl	ft_split
	.type	ft_split, @function
ft_split:
.LVL0:
.LFB53:
	.file 1 "ft_split.c"
	.loc 1 66 1 view -0
	.cfi_startproc
	.loc 1 66 1 is_stmt 0 view .LVU1
	endbr64	
	pushq	%rbp	#
	.cfi_def_cfa_offset 16
	.cfi_offset 6, -16
	movq	%rsp, %rbp	#,
	.cfi_def_cfa_register 6
	pushq	%r15	#
	pushq	%r14	#
	pushq	%r13	#
	pushq	%r12	#
	pushq	%rbx	#
	subq	$24, %rsp	#,
	.cfi_offset 15, -24
	.cfi_offset 14, -32
	.cfi_offset 13, -40
	.cfi_offset 12, -48
	.cfi_offset 3, -56
1:	call	*mcount@GOTPCREL(%rip)
# ft_split.c:66: {
	.loc 1 66 1 view .LVU2
	.loc 1 67 2 is_stmt 1 view .LVU3
	.loc 1 68 2 view .LVU4
	.loc 1 69 2 view .LVU5
	.loc 1 70 2 view .LVU6
	.loc 1 72 2 view .LVU7
.LVL1:
.LBB8:
.LBB9:
# ft_split.c:22: 	while (*s)
	.loc 1 22 9 is_stmt 0 view .LVU8
	movzbl	(%rdi), %eax	# *s_19(D), _2
.LBE9:
.LBE8:
# ft_split.c:66: {
	.loc 1 66 1 view .LVU9
	movq	%rdi, %rbx	# tmp154, s
	movl	%esi, %r12d	# tmp155, c
.LVL2:
.LBB13:
.LBI8:
	.loc 1 15 15 is_stmt 1 view .LVU10
.LBB10:
	.loc 1 17 2 view .LVU11
	.loc 1 18 2 view .LVU12
	.loc 1 20 2 view .LVU13
	.loc 1 21 2 view .LVU14
	.loc 1 22 2 view .LVU15
	.loc 1 22 9 view .LVU16
.LBE10:
.LBE13:
# ft_split.c:66: {
	.loc 1 66 1 is_stmt 0 view .LVU17
	movl	%esi, %r15d	# c, c
.LBB14:
.LBB11:
# ft_split.c:22: 	while (*s)
	.loc 1 22 9 view .LVU18
	testb	%al, %al	# _2
	je	.L25	#,
	movq	%rdi, %rdx	# s, s
# ft_split.c:21: 	was_c = 1;
	.loc 1 21 8 view .LVU19
	movl	$1, %ecx	#, was_c
# ft_split.c:20: 	count = 0;
	.loc 1 20 8 view .LVU20
	xorl	%edi, %edi	# count
.LVL3:
	.loc 1 20 8 view .LVU21
	jmp	.L5	#
.LVL4:
	.p2align 4,,10
	.p2align 3
.L56:
# ft_split.c:24: 		if (!was_c && *s == c)
	.loc 1 24 14 discriminator 1 view .LVU22
	cmpb	%al, %r15b	# _2, c
	jne	.L4	#,
# ft_split.c:26: 			count++;
	.loc 1 26 9 view .LVU23
	incq	%rdi	# count
.LVL5:
# ft_split.c:27: 			was_c = 1;
	.loc 1 27 10 view .LVU24
	movl	$1, %ecx	#, was_c
.LVL6:
.L4:
	.loc 1 33 3 is_stmt 1 view .LVU25
# ft_split.c:22: 	while (*s)
	.loc 1 22 9 is_stmt 0 view .LVU26
	movzbl	1(%rdx), %eax	# MEM[(const char *)s_37], _2
# ft_split.c:33: 		s++;
	.loc 1 33 4 view .LVU27
	incq	%rdx	# s
.LVL7:
	.loc 1 22 9 is_stmt 1 view .LVU28
	testb	%al, %al	# _2
	je	.L55	#,
.LVL8:
.L5:
	.loc 1 24 3 view .LVU29
# ft_split.c:24: 		if (!was_c && *s == c)
	.loc 1 24 6 is_stmt 0 view .LVU30
	testl	%ecx, %ecx	# was_c
	je	.L56	#,
.LVL9:
	.loc 1 29 8 is_stmt 1 view .LVU31
# ft_split.c:29: 		else if (*s == c)
	.loc 1 29 11 is_stmt 0 view .LVU32
	xorl	%ecx, %ecx	# was_c
	cmpb	%al, %r15b	# _2, c
	sete	%cl	#, was_c
.LVL10:
	.loc 1 33 3 is_stmt 1 view .LVU33
# ft_split.c:33: 		s++;
	.loc 1 33 4 is_stmt 0 view .LVU34
	incq	%rdx	# s
.LVL11:
	.loc 1 22 9 is_stmt 1 view .LVU35
	movzbl	(%rdx), %eax	# MEM[(const char *)s_37], _2
	testb	%al, %al	# _2
	jne	.L5	#,
.LVL12:
.L55:
	.loc 1 35 2 view .LVU36
# ft_split.c:36: 		count++;
	.loc 1 36 8 is_stmt 0 view .LVU37
	cmpl	$1, %ecx	#, was_c
	adcq	$1, %rdi	#, prephitmp_35
.LVL13:
.L2:
	.loc 1 37 2 is_stmt 1 view .LVU38
	.loc 1 37 2 is_stmt 0 view .LVU39
.LBE11:
.LBE14:
	.loc 1 73 2 is_stmt 1 view .LVU40
# ft_split.c:73: 	str_ar = (char **)ft_calloc(str_count + 1, sizeof(char *));
	.loc 1 73 20 is_stmt 0 view .LVU41
	movl	$8, %esi	#,
.LVL14:
	.loc 1 73 20 view .LVU42
	call	ft_calloc@PLT	#
.LVL15:
	movq	%rax, %r14	# tmp156, <retval>
.LVL16:
	.loc 1 74 2 is_stmt 1 view .LVU43
# ft_split.c:74: 	if (!str_ar)
	.loc 1 74 5 is_stmt 0 view .LVU44
	testq	%rax, %rax	# <retval>
	je	.L7	#,
.LVL17:
	.loc 1 77 9 is_stmt 1 view .LVU45
	movzbl	(%rbx), %edx	# *s_19(D), _29
	testb	%dl, %dl	# _29
	je	.L1	#,
.LBB15:
.LBB16:
# ft_split.c:46: 	found = ft_strchr(s, c);
	.loc 1 46 10 is_stmt 0 view .LVU46
	movsbl	%r12b, %eax	# c, _106
.LVL18:
	.loc 1 46 10 view .LVU47
.LBE16:
.LBE15:
# ft_split.c:76: 	i = 0;
	.loc 1 76 4 view .LVU48
	xorl	%r13d, %r13d	# i
.LBB24:
.LBB17:
# ft_split.c:46: 	found = ft_strchr(s, c);
	.loc 1 46 10 view .LVU49
	movl	%eax, -52(%rbp)	# _106, %sfp
.LVL19:
	.p2align 4,,10
	.p2align 3
.L9:
	.loc 1 46 10 view .LVU50
.LBE17:
.LBE24:
	.loc 1 79 13 is_stmt 1 view .LVU51
# ft_split.c:79: 		while (*s && *s == c)
	.loc 1 79 13 is_stmt 0 discriminator 1 view .LVU52
	cmpb	%dl, %r15b	# _29, c
	je	.L10	#,
	jmp	.L24	#
	.p2align 4,,10
	.p2align 3
.L57:
	.loc 1 79 13 discriminator 1 view .LVU53
	testb	%al, %al	# _3
	je	.L24	#,
.L10:
	.loc 1 80 4 is_stmt 1 view .LVU54
# ft_split.c:79: 		while (*s && *s == c)
	.loc 1 79 10 is_stmt 0 view .LVU55
	movzbl	1(%rbx), %eax	# MEM[(const char *)s_23], _3
# ft_split.c:80: 			s++;
	.loc 1 80 5 view .LVU56
	incq	%rbx	# s
.LVL20:
	.loc 1 79 13 is_stmt 1 view .LVU57
# ft_split.c:79: 		while (*s && *s == c)
	.loc 1 79 13 is_stmt 0 discriminator 1 view .LVU58
	cmpb	%r15b, %al	# c, _3
	je	.L57	#,
.L24:
	.loc 1 81 3 is_stmt 1 view .LVU59
.LVL21:
.LBB25:
.LBI15:
	.loc 1 40 12 view .LVU60
.LBB18:
	.loc 1 42 2 view .LVU61
	.loc 1 43 2 view .LVU62
	.loc 1 44 2 view .LVU63
	.loc 1 46 2 view .LVU64
# ft_split.c:46: 	found = ft_strchr(s, c);
	.loc 1 46 10 is_stmt 0 view .LVU65
	movl	-52(%rbp), %esi	# %sfp,
	movq	%rbx, %rdi	# s,
	call	ft_strchr@PLT	#
.LVL22:
	.loc 1 47 2 is_stmt 1 view .LVU66
# ft_split.c:50: 		len = found - s;
	.loc 1 50 7 is_stmt 0 view .LVU67
	movl	%eax, %edx	# found, len
	subl	%ebx, %edx	# s, len
# ft_split.c:47: 	if (!found)
	.loc 1 47 5 view .LVU68
	testq	%rax, %rax	# found
	je	.L58	#,
.LVL23:
.L13:
	.loc 1 51 2 is_stmt 1 view .LVU69
# ft_split.c:51: 	if (len == 0)
	.loc 1 51 5 is_stmt 0 view .LVU70
	testl	%edx, %edx	# len
	jne	.L14	#,
.LBE18:
.LBE25:
# ft_split.c:77: 	while (*s)
	.loc 1 77 9 view .LVU71
	movzbl	(%rbx), %edx	# *s_90, _29
.LVL24:
.L15:
	.loc 1 86 3 is_stmt 1 view .LVU72
	.loc 1 77 9 view .LVU73
	testb	%dl, %dl	# _29
	jne	.L9	#,
.LVL25:
.L1:
# ft_split.c:89: }
	.loc 1 89 1 is_stmt 0 view .LVU74
	addq	$24, %rsp	#,
	movq	%r14, %rax	# <retval>,
	popq	%rbx	#
	popq	%r12	#
	popq	%r13	#
	popq	%r14	#
	popq	%r15	#
.LVL26:
	.loc 1 89 1 view .LVU75
	popq	%rbp	#
	.cfi_remember_state
	.cfi_def_cfa 7, 8
	ret	
.LVL27:
	.p2align 4,,10
	.p2align 3
.L14:
	.cfi_restore_state
.LBB26:
.LBB19:
# ft_split.c:53: 	*sub_str = (char *)ft_calloc(len + 1, sizeof(char));
	.loc 1 53 35 view .LVU76
	incl	%edx	# tmp135
.LVL28:
	.loc 1 53 35 view .LVU77
.LBE19:
.LBE26:
# ft_split.c:81: 		s_increase = append_next_sub(str_ar + i, s, c);
	.loc 1 81 39 view .LVU78
	movslq	%r13d, %rax	# i, i
.LBB27:
.LBB20:
# ft_split.c:53: 	*sub_str = (char *)ft_calloc(len + 1, sizeof(char));
	.loc 1 53 21 view .LVU79
	movl	$1, %esi	#,
	movslq	%edx, %rdi	# tmp135, tmp136
.LBE20:
.LBE27:
# ft_split.c:81: 		s_increase = append_next_sub(str_ar + i, s, c);
	.loc 1 81 16 view .LVU80
	leaq	(%r14,%rax,8), %r12	#, _7
.LBB28:
.LBB21:
	.loc 1 53 2 is_stmt 1 view .LVU81
# ft_split.c:53: 	*sub_str = (char *)ft_calloc(len + 1, sizeof(char));
	.loc 1 53 21 is_stmt 0 view .LVU82
	call	ft_calloc@PLT	#
.LVL29:
# ft_split.c:53: 	*sub_str = (char *)ft_calloc(len + 1, sizeof(char));
	.loc 1 53 11 discriminator 1 view .LVU83
	movq	%rax, (%r12)	# _51, *_7
	.loc 1 54 2 is_stmt 1 view .LVU84
# ft_split.c:54: 	if (!(*sub_str))
	.loc 1 54 5 is_stmt 0 view .LVU85
	testq	%rax, %rax	# _51
	je	.L16	#,
.LVL30:
	.loc 1 57 18 is_stmt 1 view .LVU86
# ft_split.c:57: 	while (s[count] && s[count] != c)
	.loc 1 57 10 is_stmt 0 view .LVU87
	movzbl	(%rbx), %edx	# *s_90, _29
# ft_split.c:57: 	while (s[count] && s[count] != c)
	.loc 1 57 18 discriminator 1 view .LVU88
	cmpb	%dl, %r15b	# _29, c
	je	.L15	#,
	testb	%dl, %dl	# _29
	je	.L1	#,
	.loc 1 59 3 is_stmt 1 view .LVU89
# ft_split.c:59: 		(*sub_str)[count] = s[count];
	.loc 1 59 21 is_stmt 0 view .LVU90
	movb	%dl, (%rax)	# _29, MEM[(char *)_51]
	.loc 1 60 3 is_stmt 1 view .LVU91
.LVL31:
	.loc 1 57 18 view .LVU92
# ft_split.c:57: 	while (s[count] && s[count] != c)
	.loc 1 57 10 is_stmt 0 view .LVU93
	movzbl	1(%rbx), %edx	# MEM[(const char *)s_90 + 1B], _29
# ft_split.c:57: 	while (s[count] && s[count] != c)
	.loc 1 57 18 discriminator 1 view .LVU94
	testb	%dl, %dl	# _29
	je	.L20	#,
	cmpb	%dl, %r15b	# _29, c
	je	.L20	#,
	leaq	2(%rbx), %rax	#, ivtmp.17
	jmp	.L21	#
.LVL32:
	.p2align 4,,10
	.p2align 3
.L59:
	.loc 1 57 18 discriminator 1 view .LVU95
	cmpb	%dl, %r15b	# _29, c
	je	.L23	#,
.LVL33:
.L21:
	.loc 1 59 3 is_stmt 1 view .LVU96
# ft_split.c:59: 		(*sub_str)[count] = s[count];
	.loc 1 59 13 is_stmt 0 view .LVU97
	movq	%rax, %rcx	# ivtmp.17, tmp145
# ft_split.c:59: 		(*sub_str)[count] = s[count];
	.loc 1 59 21 view .LVU98
	movq	(%r12), %rsi	# *_7, *_7
# ft_split.c:59: 		(*sub_str)[count] = s[count];
	.loc 1 59 13 view .LVU99
	subq	%rbx, %rcx	# s, tmp145
# ft_split.c:59: 		(*sub_str)[count] = s[count];
	.loc 1 59 21 view .LVU100
	movb	%dl, -1(%rsi,%rcx)	# _29, *_54
	.loc 1 60 3 is_stmt 1 view .LVU101
.LVL34:
	.loc 1 57 18 view .LVU102
# ft_split.c:57: 	while (s[count] && s[count] != c)
	.loc 1 57 10 is_stmt 0 view .LVU103
	movq	%rax, %rcx	# ivtmp.17, _58
# ft_split.c:57: 	while (s[count] && s[count] != c)
	.loc 1 57 18 discriminator 1 view .LVU104
	incq	%rax	# ivtmp.17
.LVL35:
# ft_split.c:57: 	while (s[count] && s[count] != c)
	.loc 1 57 10 view .LVU105
	movzbl	-1(%rax), %edx	# MEM[(const char *)_58], _29
# ft_split.c:57: 	while (s[count] && s[count] != c)
	.loc 1 57 18 discriminator 1 view .LVU106
	testb	%dl, %dl	# _29
	jne	.L59	#,
.L23:
.LVL36:
	.loc 1 57 18 discriminator 1 view .LVU107
.LBE21:
.LBE28:
	.loc 1 82 3 is_stmt 1 view .LVU108
	.loc 1 84 3 view .LVU109
	.loc 1 85 4 view .LVU110
# ft_split.c:85: 			i++;
	.loc 1 85 5 is_stmt 0 view .LVU111
	incl	%r13d	# i
.LVL37:
	.loc 1 85 5 view .LVU112
	movq	%rcx, %rbx	# _58, s
.LVL38:
	.loc 1 85 5 view .LVU113
	jmp	.L15	#
.LVL39:
	.p2align 4,,10
	.p2align 3
.L58:
.LBB29:
.LBB22:
	.loc 1 48 3 is_stmt 1 view .LVU114
# ft_split.c:48: 		len = ft_strlen(s);
	.loc 1 48 9 is_stmt 0 view .LVU115
	movq	%rbx, %rdi	# s,
	call	ft_strlen@PLT	#
.LVL40:
# ft_split.c:48: 		len = ft_strlen(s);
	.loc 1 48 7 discriminator 1 view .LVU116
	movl	%eax, %edx	# tmp158, len
.LVL41:
	.loc 1 48 7 discriminator 1 view .LVU117
	jmp	.L13	#
.LVL42:
.L16:
	.loc 1 48 7 discriminator 1 view .LVU118
.LBE22:
.LBE29:
	.loc 1 82 3 is_stmt 1 view .LVU119
	.loc 1 83 4 view .LVU120
# ft_split.c:83: 			return (ft_free_2darr(str_ar), NULL);
	.loc 1 83 12 is_stmt 0 view .LVU121
	movq	%r14, %rdi	# <retval>,
	call	ft_free_2darr@PLT	#
.LVL43:
.L7:
# ft_split.c:75: 		return (NULL);
	.loc 1 75 10 view .LVU122
	xorl	%r14d, %r14d	# <retval>
.LVL44:
	.loc 1 75 10 view .LVU123
	jmp	.L1	#
.LVL45:
.L20:
.LBB30:
.LBB23:
# ft_split.c:57: 	while (s[count] && s[count] != c)
	.loc 1 57 10 view .LVU124
	leaq	1(%rbx), %rcx	#, _58
.LVL46:
	.loc 1 57 10 view .LVU125
.LBE23:
.LBE30:
	.loc 1 82 3 is_stmt 1 view .LVU126
	.loc 1 84 3 view .LVU127
	.loc 1 85 4 view .LVU128
# ft_split.c:85: 			i++;
	.loc 1 85 5 is_stmt 0 view .LVU129
	incl	%r13d	# i
.LVL47:
	.loc 1 85 5 view .LVU130
	movq	%rcx, %rbx	# _58, s
.LVL48:
	.loc 1 85 5 view .LVU131
	jmp	.L15	#
.LVL49:
.L25:
.LBB31:
.LBB12:
# ft_split.c:22: 	while (*s)
	.loc 1 22 9 view .LVU132
	movl	$1, %edi	#, prephitmp_35
	jmp	.L2	#
.LBE12:
.LBE31:
	.cfi_endproc
.LFE53:
	.size	ft_split, .-ft_split
.Letext0:
	.file 2 "../includes/libft.h"
	.file 3 "/usr/lib/gcc/x86_64-linux-gnu/13/include/stddef.h"
	.section	.note.GNU-stack,"",@progbits
	.section	.note.gnu.property,"a"
	.align 8
	.long	1f - 0f
	.long	4f - 1f
	.long	5
0:
	.string	"GNU"
1:
	.align 8
	.long	0xc0000002
	.long	3f - 2f
2:
	.long	0x3
3:
	.align 8
4:

ft_itoa.o/      0           0     0     644     23507     `
	.file	"ft_itoa.c"
# GNU C17 (Ubuntu 13.2.0-23ubuntu4) version 13.2.0 (x86_64-linux-gnu)
#	compiled by GNU C version 13.2.0, GMP version 6.3.0, MPFR version 4.2.1, MPC version 1.3.1, isl version isl-0.26-GMP

# GGC heuristics: --param ggc-min-expand=100 --param ggc-min-heapsize=131072
# options passed: -march=skylake -mmmx -mpopcnt -msse -msse2 -msse3 -mssse3 -msse4.1 -msse4.2 -mavx -mno-sse4a -mno-fma4 -mno-xop -mfma -mno-avx512f -mbmi -mbmi2 -maes -mpclmul -mno-avx512vl -mno-avx512bw -mno-avx512dq -mno-avx512cd -mno-avx512er -mno-avx512pf -mno-avx512vbmi -mno-avx512ifma -mno-avx5124vnniw -mno-avx5124fmaps -mno-avx512vpopcntdq -mno-avx512vbmi2 -mno-gfni -mno-vpclmulqdq -mno-avx512vnni -mno-avx512bitalg -mno-avx512bf16 -mno-avx512vp2intersect -mno-3dnow -madx -mabm -mno-cldemote -mclflushopt -mno-clwb -mno-clzero -mcx16 -mno-enqcmd -mf16c -mfsgsbase -mfxsr -mhle -msahf -mno-lwp -mlzcnt -mmovbe -mno-movdir64b -mno-movdiri -mno-mwaitx -mno-pconfig -mno-pku -mno-prefetchwt1 -mprfchw -mno-ptwrite -mno-rdpid -mrdrnd -mrdseed -mrtm -mno-serialize -msgx -mno-sha -mno-shstk -mno-tbm -mno-tsxldtrk -mno-vaes -mno-waitpkg -mno-wbnoinvd -mxsave -mxsavec -mxsaveopt -mxsaves -mno-amx-tile -mno-amx-int8 -mno-amx-bf16 -mno-uintr -mno-hreset -mno-kl -mno-widekl -mno-avxvnni -mno-avx512fp16 -mno-avxifma -mno-avxvnniint8 -mno-avxneconvert -mno-cmpccxadd -mno-amx-fp16 -mno-prefetchi -mno-raoint -mno-amx-complex --param=l1-cache-size=32 --param=l1-cache-line-size=64 --param=l2-cache-size=16384 -mtune=skylake -mavx2 -g -Ofast -p -fasynchronous-unwind-tables -fstack-protector-strong -fstack-clash-protection -fcf-protection
	.text
.Ltext0:
	.file 0 "/home/fabi/42/cub3D/libft" "ft_itoa.c"
	.p2align 4
	.globl	ft_itoa
	.type	ft_itoa, @function
ft_itoa:
.LVL0:
.LFB52:
	.file 1 "ft_itoa.c"
	.loc 1 35 1 view -0
	.cfi_startproc
	.loc 1 35 1 is_stmt 0 view .LVU1
	endbr64	
	pushq	%rbp	#
	.cfi_def_cfa_offset 16
	.cfi_offset 6, -16
	movq	%rsp, %rbp	#,
	.cfi_def_cfa_register 6
	pushq	%r13	#
	pushq	%r12	#
	pushq	%rbx	#
	subq	$8, %rsp	#,
	.cfi_offset 13, -24
	.cfi_offset 12, -32
	.cfi_offset 3, -40
1:	call	*mcount@GOTPCREL(%rip)
# ft_itoa.c:35: {
	.loc 1 35 1 view .LVU2
	.loc 1 36 2 is_stmt 1 view .LVU3
	.loc 1 37 2 view .LVU4
	.loc 1 38 2 view .LVU5
	.loc 1 40 2 view .LVU6
.LVL1:
	.loc 1 41 2 view .LVU7
# ft_itoa.c:41: 	if (n <= 0)
	.loc 1 41 5 is_stmt 0 view .LVU8
	xorl	%r13d, %r13d	# size
	testl	%edi, %edi	# n
# ft_itoa.c:35: {
	.loc 1 35 1 view .LVU9
	movl	%edi, %ebx	# tmp163, n
# ft_itoa.c:41: 	if (n <= 0)
	.loc 1 41 5 view .LVU10
	setle	%r13b	#, size
.LVL2:
	.loc 1 45 9 is_stmt 1 view .LVU11
	je	.L2	#,
	movl	%edi, %edx	# n, n
.LVL3:
	.p2align 4,,10
	.p2align 3
.L3:
	.loc 1 47 3 view .LVU12
# ft_itoa.c:47: 		n /= 10;
	.loc 1 47 5 is_stmt 0 view .LVU13
	movslq	%edx, %rax	# n, n
	movl	%edx, %ecx	# n, n
	movl	%r13d, %r12d	# size, size
	imulq	$1717986919, %rax, %rax	#, n, tmp114
	sarl	$31, %ecx	#, n
# ft_itoa.c:48: 		size++;
	.loc 1 48 7 view .LVU14
	leal	1(%r13), %r13d	#, size
# ft_itoa.c:47: 		n /= 10;
	.loc 1 47 5 view .LVU15
	sarq	$34, %rax	#, tmp116
.LVL4:
	.loc 1 48 3 is_stmt 1 view .LVU16
	.loc 1 45 9 view .LVU17
	subl	%ecx, %eax	# tmp117, tmp116
.LVL5:
	.loc 1 45 9 is_stmt 0 view .LVU18
	movl	%eax, %edx	# tmp116, n
	jne	.L3	#,
	.loc 1 50 2 is_stmt 1 view .LVU19
# ft_itoa.c:50: 	str = (char *)ft_calloc(size + 1, sizeof(char));
	.loc 1 50 31 is_stmt 0 view .LVU20
	leal	2(%r12), %edi	#, tmp118
# ft_itoa.c:50: 	str = (char *)ft_calloc(size + 1, sizeof(char));
	.loc 1 50 16 view .LVU21
	movl	$1, %esi	#,
	movslq	%edi, %rdi	# tmp118, tmp119
	call	ft_calloc@PLT	#
.LVL6:
	.loc 1 50 16 view .LVU22
	movq	%rax, %rcx	# tmp164, <retval>
.LVL7:
	.loc 1 51 2 is_stmt 1 view .LVU23
# ft_itoa.c:51: 	if (!str)
	.loc 1 51 5 is_stmt 0 view .LVU24
	testq	%rax, %rax	# <retval>
	je	.L1	#,
	.loc 1 53 2 is_stmt 1 view .LVU25
.LVL8:
.LBB4:
.LBI4:
	.loc 1 15 13 view .LVU26
.LBB5:
	.loc 1 17 2 view .LVU27
# ft_itoa.c:17: 	str[size--] = '\0';
	.loc 1 17 10 is_stmt 0 view .LVU28
	movslq	%r13d, %r13	# size, size
# ft_itoa.c:17: 	str[size--] = '\0';
	.loc 1 17 14 view .LVU29
	movb	$0, (%rax,%r13)	#, *_18
	.loc 1 18 2 is_stmt 1 view .LVU30
	.loc 1 20 7 view .LVU31
# ft_itoa.c:20: 	else if (n < 0)
	.loc 1 20 10 is_stmt 0 view .LVU32
	testl	%ebx, %ebx	# n
	js	.L20	#,
.LVL9:
.L5:
	.loc 1 20 10 view .LVU33
	movslq	%r12d, %r12	# size, size
	addq	%rcx, %r12	# <retval>, ivtmp.14
	.p2align 4,,10
	.p2align 3
.L6:
.LVL10:
	.loc 1 29 3 is_stmt 1 view .LVU34
# ft_itoa.c:29: 		str[size--] = '0' + n % 10;
	.loc 1 29 25 is_stmt 0 view .LVU35
	movslq	%ebx, %rax	# n, n
	movl	%ebx, %edx	# n, tmp148
# ft_itoa.c:27: 	while (n)
	.loc 1 27 9 view .LVU36
	decq	%r12	# ivtmp.14
# ft_itoa.c:29: 		str[size--] = '0' + n % 10;
	.loc 1 29 25 view .LVU37
	imulq	$1717986919, %rax, %rax	#, n, tmp145
	sarl	$31, %edx	#, tmp148
	sarq	$34, %rax	#, tmp147
	subl	%edx, %eax	# tmp148, tmp143
	leal	(%rax,%rax,4), %edx	#, tmp151
	addl	%edx, %edx	# tmp152
	subl	%edx, %ebx	# tmp152, tmp153
.LVL11:
# ft_itoa.c:29: 		str[size--] = '0' + n % 10;
	.loc 1 29 21 view .LVU38
	addl	$48, %ebx	#, tmp154
	movb	%bl, 1(%r12)	# tmp154, MEM[(char *)_72]
	.loc 1 30 3 is_stmt 1 view .LVU39
# ft_itoa.c:30: 		n /= 10;
	.loc 1 30 5 is_stmt 0 view .LVU40
	movl	%eax, %ebx	# tmp143, n
.LVL12:
	.loc 1 27 9 is_stmt 1 view .LVU41
	testl	%eax, %eax	# n
	jne	.L6	#,
.LVL13:
.L1:
	.loc 1 27 9 is_stmt 0 view .LVU42
.LBE5:
.LBE4:
# ft_itoa.c:55: }
	.loc 1 55 1 view .LVU43
	addq	$8, %rsp	#,
	movq	%rcx, %rax	# <retval>,
	popq	%rbx	#
	popq	%r12	#
	popq	%r13	#
	popq	%rbp	#
	.cfi_remember_state
	.cfi_def_cfa 7, 8
	ret	
.LVL14:
	.p2align 4,,10
	.p2align 3
.L20:
	.cfi_restore_state
.LBB8:
.LBB6:
	.loc 1 22 3 is_stmt 1 view .LVU44
# ft_itoa.c:22: 		str[0] = '-';
	.loc 1 22 10 is_stmt 0 view .LVU45
	movb	$45, (%rax)	#, *str_10
	.loc 1 23 3 is_stmt 1 view .LVU46
.LVL15:
# ft_itoa.c:23: 		str[size--] = '0' - n % 10;
	.loc 1 23 25 is_stmt 0 view .LVU47
	movslq	%ebx, %rax	# n, n
.LVL16:
	.loc 1 23 25 view .LVU48
	movl	%ebx, %edx	# n, tmp127
# ft_itoa.c:23: 		str[size--] = '0' - n % 10;
	.loc 1 23 11 view .LVU49
	movslq	%r12d, %rsi	# size, size
# ft_itoa.c:23: 		str[size--] = '0' - n % 10;
	.loc 1 23 25 view .LVU50
	imulq	$1717986919, %rax, %rax	#, n, tmp124
	sarl	$31, %edx	#, tmp127
	sarq	$34, %rax	#, tmp126
	subl	%edx, %eax	# tmp127, tmp122
	leal	(%rax,%rax,4), %edx	#, tmp130
# ft_itoa.c:25: 		n = -n;
	.loc 1 25 5 view .LVU51
	negl	%eax	# n
# ft_itoa.c:23: 		str[size--] = '0' - n % 10;
	.loc 1 23 25 view .LVU52
	addl	%edx, %edx	# tmp131
# ft_itoa.c:23: 		str[size--] = '0' - n % 10;
	.loc 1 23 21 view .LVU53
	subl	%ebx, %edx	# n, tmp133
# ft_itoa.c:27: 	while (n)
	.loc 1 27 9 view .LVU54
	addl	$9, %ebx	#, tmp141
.LVL17:
# ft_itoa.c:23: 		str[size--] = '0' - n % 10;
	.loc 1 23 21 view .LVU55
	addl	$48, %edx	#, tmp134
	movb	%dl, (%rcx,%rsi)	# tmp134, *_87
	.loc 1 24 3 is_stmt 1 view .LVU56
.LVL18:
	.loc 1 25 3 view .LVU57
	.loc 1 27 9 view .LVU58
	cmpl	$18, %ebx	#, tmp141
	jbe	.L1	#,
# ft_itoa.c:23: 		str[size--] = '0' - n % 10;
	.loc 1 23 11 is_stmt 0 view .LVU59
	decl	%r12d	# size
.LVL19:
	.loc 1 23 11 view .LVU60
	movl	%eax, %ebx	# n, n
.LVL20:
	.loc 1 23 11 view .LVU61
	jmp	.L5	#
.LVL21:
	.p2align 4,,10
	.p2align 3
.L2:
	.loc 1 23 11 view .LVU62
.LBE6:
.LBE8:
	.loc 1 50 2 is_stmt 1 view .LVU63
# ft_itoa.c:50: 	str = (char *)ft_calloc(size + 1, sizeof(char));
	.loc 1 50 16 is_stmt 0 view .LVU64
	movl	$1, %esi	#,
	movl	$2, %edi	#,
	call	ft_calloc@PLT	#
.LVL22:
	movq	%rax, %rcx	# tmp165, <retval>
.LVL23:
	.loc 1 51 2 is_stmt 1 view .LVU65
# ft_itoa.c:51: 	if (!str)
	.loc 1 51 5 is_stmt 0 view .LVU66
	testq	%rax, %rax	# <retval>
	je	.L1	#,
	.loc 1 53 2 is_stmt 1 view .LVU67
.LVL24:
.LBB9:
	.loc 1 15 13 view .LVU68
.LBB7:
	.loc 1 17 2 view .LVU69
	.loc 1 18 2 view .LVU70
	.loc 1 19 3 view .LVU71
# ft_itoa.c:19: 		str[0] = '0';
	.loc 1 19 10 is_stmt 0 view .LVU72
	movl	$48, %eax	#,
.LVL25:
	.loc 1 19 10 view .LVU73
	movw	%ax, (%rcx)	#, MEM <unsigned short> [(char *)str_57]
	.loc 1 27 9 is_stmt 1 view .LVU74
.LBE7:
.LBE9:
# ft_itoa.c:55: }
	.loc 1 55 1 is_stmt 0 view .LVU75
	addq	$8, %rsp	#,
	movq	%rcx, %rax	# <retval>,
	popq	%rbx	#
.LVL26:
	.loc 1 55 1 view .LVU76
	popq	%r12	#
	popq	%r13	#
	popq	%rbp	#
	.cfi_def_cfa 7, 8
	ret	
	.cfi_endproc
.LFE52:
	.size	ft_itoa, .-ft_itoa
.Letext0:
	.file 2 "/usr/lib/gcc/x86_64-linux-gnu/13/include/stddef.h"
	.file 3 "../includes/libft.h"
	.section	.note.GNU-stack,"",@progbits
	.section	.note.gnu.property,"a"
	.align 8
	.long	1f - 0f
	.long	4f - 1f
	.long	5
0:
	.string	"GNU"
1:
	.align 8
	.long	0xc0000002
	.long	3f - 2f
2:
	.long	0x3
3:
	.align 8
4:

ft_strmapi.o/   0           0     0     644     17102     `
	.file	"ft_strmapi.c"
# GNU C17 (Ubuntu 13.2.0-23ubuntu4) version 13.2.0 (x86_64-linux-gnu)
#	compiled by GNU C version 13.2.0, GMP version 6.3.0, MPFR version 4.2.1, MPC version 1.3.1, isl version isl-0.26-GMP

# GGC heuristics: --param ggc-min-expand=100 --param ggc-min-heapsize=131072
# options passed: -march=skylake -mmmx -mpopcnt -msse -msse2 -msse3 -mssse3 -msse4.1 -msse4.2 -mavx -mno-sse4a -mno-fma4 -mno-xop -mfma -mno-avx512f -mbmi -mbmi2 -maes -mpclmul -mno-avx512vl -mno-avx512bw -mno-avx512dq -mno-avx512cd -mno-avx512er -mno-avx512pf -mno-avx512vbmi -mno-avx512ifma -mno-avx5124vnniw -mno-avx5124fmaps -mno-avx512vpopcntdq -mno-avx512vbmi2 -mno-gfni -mno-vpclmulqdq -mno-avx512vnni -mno-avx512bitalg -mno-avx512bf16 -mno-avx512vp2intersect -mno-3dnow -madx -mabm -mno-cldemote -mclflushopt -mno-clwb -mno-clzero -mcx16 -mno-enqcmd -mf16c -mfsgsbase -mfxsr -mhle -msahf -mno-lwp -mlzcnt -mmovbe -mno-movdir64b -mno-movdiri -mno-mwaitx -mno-pconfig -mno-pku -mno-prefetchwt1 -mprfchw -mno-ptwrite -mno-rdpid -mrdrnd -mrdseed -mrtm -mno-serialize -msgx -mno-sha -mno-shstk -mno-tbm -mno-tsxldtrk -mno-vaes -mno-waitpkg -mno-wbnoinvd -mxsave -mxsavec -mxsaveopt -mxsaves -mno-amx-tile -mno-amx-int8 -mno-amx-bf16 -mno-uintr -mno-hreset -mno-kl -mno-widekl -mno-avxvnni -mno-avx512fp16 -mno-avxifma -mno-avxvnniint8 -mno-avxneconvert -mno-cmpccxadd -mno-amx-fp16 -mno-prefetchi -mno-raoint -mno-amx-complex --param=l1-cache-size=32 --param=l1-cache-line-size=64 --param=l2-cache-size=16384 -mtune=skylake -mavx2 -g -Ofast -p -fasynchronous-unwind-tables -fstack-protector-strong -fstack-clash-protection -fcf-protection
	.text
.Ltext0:
	.file 0 "/home/fabi/42/cub3D/libft" "ft_strmapi.c"
	.p2align 4
	.globl	ft_strmapi
	.type	ft_strmapi, @function
ft_strmapi:
.LVL0:
.LFB51:
	.file 1 "ft_strmapi.c"
	.loc 1 16 1 view -0
	.cfi_startproc
	.loc 1 16 1 is_stmt 0 view .LVU1
	endbr64	
	pushq	%rbp	#
	.cfi_def_cfa_offset 16
	.cfi_offset 6, -16
	movq	%rsp, %rbp	#,
	.cfi_def_cfa_register 6
	pushq	%r14	#
	pushq	%r13	#
	pushq	%r12	#
	pushq	%rbx	#
	.cfi_offset 14, -24
	.cfi_offset 13, -32
	.cfi_offset 12, -40
	.cfi_offset 3, -48
1:	call	*mcount@GOTPCREL(%rip)
# ft_strmapi.c:16: {
	.loc 1 16 1 view .LVU2
	.loc 1 17 2 is_stmt 1 view .LVU3
	.loc 1 18 2 view .LVU4
	.loc 1 20 2 view .LVU5
# ft_strmapi.c:16: {
	.loc 1 16 1 is_stmt 0 view .LVU6
	movq	%rdi, %r12	# tmp98, s
	movq	%rsi, %r14	# tmp99, f
# ft_strmapi.c:20: 	if (!s)
	.loc 1 20 5 view .LVU7
	testq	%rdi, %rdi	# s
	je	.L4	#,
	.loc 1 22 2 is_stmt 1 view .LVU8
# ft_strmapi.c:22: 	new_str = (char *)malloc(sizeof(char) * (ft_strlen(s) + 1));
	.loc 1 22 43 is_stmt 0 view .LVU9
	call	ft_strlen@PLT	#
.LVL1:
# ft_strmapi.c:22: 	new_str = (char *)malloc(sizeof(char) * (ft_strlen(s) + 1));
	.loc 1 22 56 discriminator 1 view .LVU10
	leaq	1(%rax), %rdi	#, tmp93
# ft_strmapi.c:22: 	new_str = (char *)malloc(sizeof(char) * (ft_strlen(s) + 1));
	.loc 1 22 20 discriminator 1 view .LVU11
	call	malloc@PLT	#
.LVL2:
	movq	%rax, %r13	# tmp101, <retval>
.LVL3:
	.loc 1 23 2 is_stmt 1 view .LVU12
# ft_strmapi.c:23: 	if (!new_str)
	.loc 1 23 5 is_stmt 0 view .LVU13
	testq	%rax, %rax	# <retval>
	je	.L4	#,
.LVL4:
	.loc 1 26 9 is_stmt 1 view .LVU14
# ft_strmapi.c:26: 	while (s[i])
	.loc 1 26 10 is_stmt 0 view .LVU15
	movsbl	(%r12), %esi	# *s_17(D),
# ft_strmapi.c:26: 	while (s[i])
	.loc 1 26 9 view .LVU16
	testb	%sil, %sil	# _10
	je	.L7	#,
# ft_strmapi.c:26: 	while (s[i])
	.loc 1 26 10 view .LVU17
	xorl	%ebx, %ebx	# _13
.LVL5:
	.p2align 4,,10
	.p2align 3
.L6:
	.loc 1 28 3 is_stmt 1 view .LVU18
# ft_strmapi.c:28: 		new_str[i] = f(i, s[i]);
	.loc 1 28 16 is_stmt 0 view .LVU19
	movl	%ebx, %edi	# _13, _13
	call	*%r14	# f
.LVL6:
# ft_strmapi.c:28: 		new_str[i] = f(i, s[i]);
	.loc 1 28 14 discriminator 1 view .LVU20
	movb	%al, 0(%r13,%rbx)	# tmp102, MEM[(char *)new_str_21 + _30 * 1]
	.loc 1 29 3 is_stmt 1 view .LVU21
.LVL7:
	.loc 1 26 9 view .LVU22
	incq	%rbx	# _13
.LVL8:
# ft_strmapi.c:26: 	while (s[i])
	.loc 1 26 10 is_stmt 0 view .LVU23
	movsbl	(%r12,%rbx), %esi	# MEM[(const char *)s_17(D) + _13 * 1],
# ft_strmapi.c:26: 	while (s[i])
	.loc 1 26 9 view .LVU24
	testb	%sil, %sil	# _10
	jne	.L6	#,
# ft_strmapi.c:31: 	new_str[i] = '\0';
	.loc 1 31 9 view .LVU25
	addq	%r13, %rbx	# <retval>, _27
.LVL9:
.L5:
	.loc 1 31 2 is_stmt 1 view .LVU26
# ft_strmapi.c:31: 	new_str[i] = '\0';
	.loc 1 31 13 is_stmt 0 view .LVU27
	movb	$0, (%rbx)	#, *prephitmp_28
	.loc 1 32 2 is_stmt 1 view .LVU28
# ft_strmapi.c:33: }
	.loc 1 33 1 is_stmt 0 view .LVU29
	movq	%r13, %rax	# <retval>,
	popq	%rbx	#
	popq	%r12	#
.LVL10:
	.loc 1 33 1 view .LVU30
	popq	%r13	#
.LVL11:
	.loc 1 33 1 view .LVU31
	popq	%r14	#
.LVL12:
	.loc 1 33 1 view .LVU32
	popq	%rbp	#
	.cfi_remember_state
	.cfi_def_cfa 7, 8
	ret	
.LVL13:
	.p2align 4,,10
	.p2align 3
.L4:
	.cfi_restore_state
	.loc 1 33 1 view .LVU33
	popq	%rbx	#
# ft_strmapi.c:21: 		return (NULL);
	.loc 1 21 10 view .LVU34
	xorl	%r13d, %r13d	# <retval>
# ft_strmapi.c:33: }
	.loc 1 33 1 view .LVU35
	popq	%r12	#
.LVL14:
	.loc 1 33 1 view .LVU36
	movq	%r13, %rax	# <retval>,
	popq	%r13	#
	popq	%r14	#
.LVL15:
	.loc 1 33 1 view .LVU37
	popq	%rbp	#
	.cfi_remember_state
	.cfi_def_cfa 7, 8
	ret	
.LVL16:
	.p2align 4,,10
	.p2align 3
.L7:
	.cfi_restore_state
# ft_strmapi.c:26: 	while (s[i])
	.loc 1 26 9 view .LVU38
	movq	%rax, %rbx	# <retval>, _27
	jmp	.L5	#
	.cfi_endproc
.LFE51:
	.size	ft_strmapi, .-ft_strmapi
.Letext0:
	.file 2 "/usr/include/stdlib.h"
	.file 3 "../includes/libft.h"
	.file 4 "/usr/lib/gcc/x86_64-linux-gnu/13/include/stddef.h"
	.section	.note.GNU-stack,"",@progbits
	.section	.note.gnu.property,"a"
	.align 8
	.long	1f - 0f
	.long	4f - 1f
	.long	5
0:
	.string	"GNU"
1:
	.align 8
	.long	0xc0000002
	.long	3f - 2f
2:
	.long	0x3
3:
	.align 8
4:
ft_striteri.o/  0           0     0     644     10372     `
	.file	"ft_striteri.c"
# GNU C17 (Ubuntu 13.2.0-23ubuntu4) version 13.2.0 (x86_64-linux-gnu)
#	compiled by GNU C version 13.2.0, GMP version 6.3.0, MPFR version 4.2.1, MPC version 1.3.1, isl version isl-0.26-GMP

# GGC heuristics: --param ggc-min-expand=100 --param ggc-min-heapsize=131072
# options passed: -march=skylake -mmmx -mpopcnt -msse -msse2 -msse3 -mssse3 -msse4.1 -msse4.2 -mavx -mno-sse4a -mno-fma4 -mno-xop -mfma -mno-avx512f -mbmi -mbmi2 -maes -mpclmul -mno-avx512vl -mno-avx512bw -mno-avx512dq -mno-avx512cd -mno-avx512er -mno-avx512pf -mno-avx512vbmi -mno-avx512ifma -mno-avx5124vnniw -mno-avx5124fmaps -mno-avx512vpopcntdq -mno-avx512vbmi2 -mno-gfni -mno-vpclmulqdq -mno-avx512vnni -mno-avx512bitalg -mno-avx512bf16 -mno-avx512vp2intersect -mno-3dnow -madx -mabm -mno-cldemote -mclflushopt -mno-clwb -mno-clzero -mcx16 -mno-enqcmd -mf16c -mfsgsbase -mfxsr -mhle -msahf -mno-lwp -mlzcnt -mmovbe -mno-movdir64b -mno-movdiri -mno-mwaitx -mno-pconfig -mno-pku -mno-prefetchwt1 -mprfchw -mno-ptwrite -mno-rdpid -mrdrnd -mrdseed -mrtm -mno-serialize -msgx -mno-sha -mno-shstk -mno-tbm -mno-tsxldtrk -mno-vaes -mno-waitpkg -mno-wbnoinvd -mxsave -mxsavec -mxsaveopt -mxsaves -mno-amx-tile -mno-amx-int8 -mno-amx-bf16 -mno-uintr -mno-hreset -mno-kl -mno-widekl -mno-avxvnni -mno-avx512fp16 -mno-avxifma -mno-avxvnniint8 -mno-avxneconvert -mno-cmpccxadd -mno-amx-fp16 -mno-prefetchi -mno-raoint -mno-amx-complex --param=l1-cache-size=32 --param=l1-cache-line-size=64 --param=l2-cache-size=16384 -mtune=skylake -mavx2 -g -Ofast -p -fasynchronous-unwind-tables -fstack-protector-strong -fstack-clash-protection -fcf-protection
	.text
.Ltext0:
	.file 0 "/home/fabi/42/cub3D/libft" "ft_striteri.c"
	.p2align 4
	.globl	ft_striteri
	.type	ft_striteri, @function
ft_striteri:
.LVL0:
.LFB0:
	.file 1 "ft_striteri.c"
	.loc 1 14 1 view -0
	.cfi_startproc
	.loc 1 14 1 is_stmt 0 view .LVU1
	endbr64	
	pushq	%rbp	#
	.cfi_def_cfa_offset 16
	.cfi_offset 6, -16
	movq	%rsp, %rbp	#,
	.cfi_def_cfa_register 6
	pushq	%r13	#
	pushq	%r12	#
	pushq	%rbx	#
	subq	$8, %rsp	#,
	.cfi_offset 13, -24
	.cfi_offset 12, -32
	.cfi_offset 3, -40
1:	call	*mcount@GOTPCREL(%rip)
# ft_striteri.c:14: {
	.loc 1 14 1 view .LVU2
	.loc 1 15 2 is_stmt 1 view .LVU3
	.loc 1 17 2 view .LVU4
# ft_striteri.c:14: {
	.loc 1 14 1 is_stmt 0 view .LVU5
	movq	%rdi, %rbx	# tmp90, s
	movq	%rsi, %r13	# tmp91, f
# ft_striteri.c:17: 	if (!s)
	.loc 1 17 5 view .LVU6
	testq	%rdi, %rdi	# s
	je	.L8	#,
.LVL1:
	.loc 1 20 9 is_stmt 1 view .LVU7
	cmpb	$0, (%rdi)	#, *s_8(D)
	je	.L8	#,
# ft_striteri.c:19: 	i = 0;
	.loc 1 19 4 is_stmt 0 view .LVU8
	xorl	%r12d, %r12d	# i
.LVL2:
	.p2align 4,,10
	.p2align 3
.L3:
	.loc 1 22 3 is_stmt 1 view .LVU9
	movq	%rbx, %rsi	# s,
	movl	%r12d, %edi	# i,
# ft_striteri.c:20: 	while (s[i])
	.loc 1 20 10 is_stmt 0 view .LVU10
	incq	%rbx	# s
# ft_striteri.c:23: 		i++;
	.loc 1 23 4 view .LVU11
	incl	%r12d	# i
.LVL3:
# ft_striteri.c:22: 		f(i, s + i);
	.loc 1 22 3 view .LVU12
	call	*%r13	# f
.LVL4:
	.loc 1 23 3 is_stmt 1 view .LVU13
	.loc 1 20 9 view .LVU14
	cmpb	$0, (%rbx)	#, MEM[(char *)_3]
	jne	.L3	#,
.LVL5:
.L8:
# ft_striteri.c:25: }
	.loc 1 25 1 is_stmt 0 view .LVU15
	addq	$8, %rsp	#,
	popq	%rbx	#
	popq	%r12	#
	popq	%r13	#
.LVL6:
	.loc 1 25 1 view .LVU16
	popq	%rbp	#
	.cfi_def_cfa 7, 8
	ret	
	.cfi_endproc
.LFE0:
	.size	ft_striteri, .-ft_striteri
.Letext0:
	.section	.note.GNU-stack,"",@progbits
	.section	.note.gnu.property,"a"
	.align 8
	.long	1f - 0f
	.long	4f - 1f
	.long	5
0:
	.string	"GNU"
1:
	.align 8
	.long	0xc0000002
	.long	3f - 2f
2:
	.long	0x3
3:
	.align 8
4:
ft_putnbr_fd.o/ 0           0     0     644     28157     `
	.file	"ft_putnbr_fd.c"
# GNU C17 (Ubuntu 13.2.0-23ubuntu4) version 13.2.0 (x86_64-linux-gnu)
#	compiled by GNU C version 13.2.0, GMP version 6.3.0, MPFR version 4.2.1, MPC version 1.3.1, isl version isl-0.26-GMP

# GGC heuristics: --param ggc-min-expand=100 --param ggc-min-heapsize=131072
# options passed: -march=skylake -mmmx -mpopcnt -msse -msse2 -msse3 -mssse3 -msse4.1 -msse4.2 -mavx -mno-sse4a -mno-fma4 -mno-xop -mfma -mno-avx512f -mbmi -mbmi2 -maes -mpclmul -mno-avx512vl -mno-avx512bw -mno-avx512dq -mno-avx512cd -mno-avx512er -mno-avx512pf -mno-avx512vbmi -mno-avx512ifma -mno-avx5124vnniw -mno-avx5124fmaps -mno-avx512vpopcntdq -mno-avx512vbmi2 -mno-gfni -mno-vpclmulqdq -mno-avx512vnni -mno-avx512bitalg -mno-avx512bf16 -mno-avx512vp2intersect -mno-3dnow -madx -mabm -mno-cldemote -mclflushopt -mno-clwb -mno-clzero -mcx16 -mno-enqcmd -mf16c -mfsgsbase -mfxsr -mhle -msahf -mno-lwp -mlzcnt -mmovbe -mno-movdir64b -mno-movdiri -mno-mwaitx -mno-pconfig -mno-pku -mno-prefetchwt1 -mprfchw -mno-ptwrite -mno-rdpid -mrdrnd -mrdseed -mrtm -mno-serialize -msgx -mno-sha -mno-shstk -mno-tbm -mno-tsxldtrk -mno-vaes -mno-waitpkg -mno-wbnoinvd -mxsave -mxsavec -mxsaveopt -mxsaves -mno-amx-tile -mno-amx-int8 -mno-amx-bf16 -mno-uintr -mno-hreset -mno-kl -mno-widekl -mno-avxvnni -mno-avx512fp16 -mno-avxifma -mno-avxvnniint8 -mno-avxneconvert -mno-cmpccxadd -mno-amx-fp16 -mno-prefetchi -mno-raoint -mno-amx-complex --param=l1-cache-size=32 --param=l1-cache-line-size=64 --param=l2-cache-size=16384 -mtune=skylake -mavx2 -g -Ofast -p -fasynchronous-unwind-tables -fstack-protector-strong -fstack-clash-protection -fcf-protection
	.text
.Ltext0:
	.file 0 "/home/fabi/42/cub3D/libft" "ft_putnbr_fd.c"
	.section	.rodata.str1.1,"aMS",@progbits,1
.LC2:
	.string	"-"
.LC3:
	.string	"0"
	.text
	.p2align 4
	.globl	ft_putnbr_fd
	.type	ft_putnbr_fd, @function
ft_putnbr_fd:
.LVL0:
.LFB53:
	.file 1 "ft_putnbr_fd.c"
	.loc 1 51 1 view -0
	.cfi_startproc
	.loc 1 51 1 is_stmt 0 view .LVU1
	endbr64	
	pushq	%rbp	#
	.cfi_def_cfa_offset 16
	.cfi_offset 6, -16
	movq	%rsp, %rbp	#,
	.cfi_def_cfa_register 6
	pushq	%r15	#
	pushq	%r14	#
	pushq	%r13	#
	pushq	%r12	#
	pushq	%rbx	#
	andq	$-32, %rsp	#,
	subq	$64, %rsp	#,
	.cfi_offset 15, -24
	.cfi_offset 14, -32
	.cfi_offset 13, -40
	.cfi_offset 12, -48
	.cfi_offset 3, -56
1:	call	*mcount@GOTPCREL(%rip)
# ft_putnbr_fd.c:51: {
	.loc 1 51 1 view .LVU2
.LBB8:
.LBB9:
# ft_putnbr_fd.c:17: 	dividend[0] = 1;
	.loc 1 17 14 view .LVU3
	vmovdqa	.LC0(%rip), %ymm0	#, tmp113
.LBE9:
.LBE8:
# ft_putnbr_fd.c:51: {
	.loc 1 51 1 view .LVU4
	movq	%fs:40, %rax	# MEM[(<address-space-1> long unsigned int *)40B], tmp144
	movq	%rax, 56(%rsp)	# tmp144, D.5710
	xorl	%eax, %eax	# tmp144
	.loc 1 52 2 is_stmt 1 view .LVU5
	.loc 1 53 2 view .LVU6
	.loc 1 54 2 view .LVU7
	.loc 1 55 2 view .LVU8
	.loc 1 57 2 view .LVU9
.LVL1:
.LBB12:
.LBI8:
	.loc 1 15 13 view .LVU10
.LBB10:
	.loc 1 17 2 view .LVU11
	.loc 1 18 2 view .LVU12
	.loc 1 19 2 view .LVU13
	.loc 1 20 2 view .LVU14
	.loc 1 21 2 view .LVU15
	.loc 1 22 2 view .LVU16
	.loc 1 23 2 view .LVU17
	.loc 1 24 2 view .LVU18
# ft_putnbr_fd.c:25: 	dividend[8] = 100000000;
	.loc 1 25 14 is_stmt 0 view .LVU19
	movq	.LC1(%rip), %rax	#, tmp114
.LBE10:
.LBE12:
# ft_putnbr_fd.c:51: {
	.loc 1 51 1 view .LVU20
	movl	%edi, %r13d	# tmp138, n
	movl	%esi, %r12d	# tmp139, fd
.LBB13:
.LBB11:
# ft_putnbr_fd.c:17: 	dividend[0] = 1;
	.loc 1 17 14 view .LVU21
	vmovdqa	%ymm0, (%rsp)	# tmp113, MEM <vector(8) int> [(int *)&dividend]
	.loc 1 25 2 is_stmt 1 view .LVU22
	.loc 1 26 2 view .LVU23
# ft_putnbr_fd.c:25: 	dividend[8] = 100000000;
	.loc 1 25 14 is_stmt 0 view .LVU24
	movq	%rax, 32(%rsp)	# tmp114, MEM <vector(2) int> [(int *)&dividend + 32B]
.LVL2:
	.loc 1 25 14 view .LVU25
.LBE11:
.LBE13:
	.loc 1 58 2 is_stmt 1 view .LVU26
.LBB14:
.LBI14:
	.loc 1 29 12 view .LVU27
.LBB15:
	.loc 1 31 2 view .LVU28
	.loc 1 32 2 view .LVU29
	.loc 1 34 2 view .LVU30
	.loc 1 35 2 view .LVU31
# ft_putnbr_fd.c:35: 	if (n < 0)
	.loc 1 35 5 is_stmt 0 view .LVU32
	testl	%edi, %edi	# n
	js	.L25	#,
	.loc 1 37 7 is_stmt 1 view .LVU33
# ft_putnbr_fd.c:37: 	else if (n == 0)
	.loc 1 37 10 is_stmt 0 view .LVU34
	je	.L26	#,
	vzeroupper
.LVL3:
.L4:
	.loc 1 37 10 view .LVU35
.LBE15:
.LBE14:
# ft_putnbr_fd.c:51: {
	.loc 1 51 1 view .LVU36
	movl	%r13d, %eax	# n, n
.LBB19:
.LBB16:
# ft_putnbr_fd.c:41: 	pow = 0;
	.loc 1 41 6 view .LVU37
	xorl	%esi, %esi	# pow
	.p2align 4,,10
	.p2align 3
.L6:
.LVL4:
	.loc 1 44 3 is_stmt 1 view .LVU38
# ft_putnbr_fd.c:44: 		n /= 10;
	.loc 1 44 5 is_stmt 0 view .LVU39
	movslq	%eax, %rdx	# n, n
	sarl	$31, %eax	#, n
.LVL5:
# ft_putnbr_fd.c:45: 		pow++;
	.loc 1 45 6 view .LVU40
	incl	%esi	# pow
# ft_putnbr_fd.c:44: 		n /= 10;
	.loc 1 44 5 view .LVU41
	imulq	$1717986919, %rdx, %rdx	#, n, tmp119
.LVL6:
	.loc 1 44 5 view .LVU42
	movl	%eax, %ecx	# n, tmp122
	sarq	$34, %rdx	#, tmp121
.LVL7:
	.loc 1 45 3 is_stmt 1 view .LVU43
	.loc 1 42 9 view .LVU44
	movl	%edx, %eax	# tmp121, tmp121
.LVL8:
	.loc 1 42 9 is_stmt 0 view .LVU45
	subl	%ecx, %eax	# tmp122, tmp121
.LVL9:
	.loc 1 42 9 view .LVU46
	jne	.L6	#,
.LVL10:
.L5:
	.loc 1 42 9 view .LVU47
	movslq	%esi, %rax	# pow, pow
	movl	%esi, %esi	# pow, pow
.LBE16:
.LBE19:
# ft_putnbr_fd.c:69: 			*digit = '0' - temp;
	.loc 1 69 17 view .LVU48
	movl	$48, %r15d	#, tmp137
	leaq	(%rsp,%rax,4), %rbx	#, ivtmp.18
	salq	$2, %rsi	#, tmp135
	movq	%rbx, %r14	# ivtmp.18, _36
	subq	%rsi, %r14	# tmp135, _36
	jmp	.L10	#
.LVL11:
	.p2align 4,,10
	.p2align 3
.L27:
	.loc 1 63 4 is_stmt 1 view .LVU49
	.loc 1 64 4 view .LVU50
# ft_putnbr_fd.c:64: 			*digit = '0' + temp;
	.loc 1 64 17 is_stmt 0 view .LVU51
	addl	$48, %eax	#, tmp125
	movb	%al, 55(%rsp)	# tmp125, digit[0]
.LVL12:
	.loc 1 71 3 is_stmt 1 view .LVU52
.L23:
	.loc 1 71 3 view .LVU53
	.loc 1 71 3 is_stmt 0 view .LVU54
	movl	%edx, %r13d	# tmp124, n
.LVL13:
	.loc 1 72 3 is_stmt 1 view .LVU55
# ft_putnbr_fd.c:72: 		if (write(fd, digit, 1) == -1)
	.loc 1 72 7 is_stmt 0 view .LVU56
	leaq	55(%rsp), %rsi	#, tmp129
	movl	$1, %edx	#,
.LVL14:
	.loc 1 72 7 view .LVU57
	movl	%r12d, %edi	# fd,
	call	write@PLT	#
.LVL15:
# ft_putnbr_fd.c:72: 		if (write(fd, digit, 1) == -1)
	.loc 1 72 6 discriminator 1 view .LVU58
	subq	$4, %rbx	#, ivtmp.18
	.loc 1 72 6 discriminator 1 view .LVU59
	cmpq	$-1, %rax	#, tmp143
	je	.L1	#,
.LVL16:
.L10:
	.loc 1 59 9 is_stmt 1 view .LVU60
	cmpq	%r14, %rbx	# _36, ivtmp.18
	je	.L1	#,
	.loc 1 61 3 view .LVU61
	movl	%r13d, %eax	# n, tmp123
	cltd
	idivl	-4(%rbx)	# MEM[(int *)_24 + -4B]
# ft_putnbr_fd.c:61: 		if (n > 0)
	.loc 1 61 6 is_stmt 0 view .LVU62
	testl	%r13d, %r13d	# n
	jg	.L27	#,
	.loc 1 68 4 is_stmt 1 view .LVU63
.LVL17:
	.loc 1 69 4 view .LVU64
# ft_putnbr_fd.c:69: 			*digit = '0' - temp;
	.loc 1 69 17 is_stmt 0 view .LVU65
	movl	%r15d, %ecx	# tmp137, tmp128
	subl	%eax, %ecx	# tmp123, tmp128
	movb	%cl, 55(%rsp)	# tmp128, digit[0]
	jmp	.L23	#
.LVL18:
	.p2align 4,,10
	.p2align 3
.L26:
.LBB20:
.LBB17:
	.loc 1 38 3 is_stmt 1 view .LVU66
# ft_putnbr_fd.c:38: 		read_val = write(fd, "0", 1);
	.loc 1 38 14 is_stmt 0 view .LVU67
	movl	$1, %edx	#,
	leaq	.LC3(%rip), %rsi	#, tmp116
.LVL19:
	.loc 1 38 14 view .LVU68
	movl	%r12d, %edi	# fd,
.LVL20:
	.loc 1 38 14 view .LVU69
	vzeroupper
.LVL21:
	call	write@PLT	#
.LVL22:
	.loc 1 39 2 is_stmt 1 view .LVU70
# ft_putnbr_fd.c:39: 	if (read_val < 0)
	.loc 1 39 5 is_stmt 0 view .LVU71
	testl	%eax, %eax	# tmp141
	js	.L3	#,
# ft_putnbr_fd.c:47: 	return (pow);
	.loc 1 47 9 view .LVU72
	xorl	%esi, %esi	# pow
	jmp	.L5	#
.LVL23:
	.p2align 4,,10
	.p2align 3
.L1:
	.loc 1 47 9 view .LVU73
.LBE17:
.LBE20:
# ft_putnbr_fd.c:75: }
	.loc 1 75 1 view .LVU74
	movq	56(%rsp), %rax	# D.5710, tmp145
	subq	%fs:40, %rax	# MEM[(<address-space-1> long unsigned int *)40B], tmp145
	jne	.L28	#,
	leaq	-40(%rbp), %rsp	#,
	popq	%rbx	#
	popq	%r12	#
.LVL24:
	.loc 1 75 1 view .LVU75
	popq	%r13	#
.LVL25:
	.loc 1 75 1 view .LVU76
	popq	%r14	#
	popq	%r15	#
	popq	%rbp	#
	.cfi_remember_state
	.cfi_def_cfa 7, 8
	ret	
.LVL26:
	.p2align 4,,10
	.p2align 3
.L25:
	.cfi_restore_state
.LBB21:
.LBB18:
	.loc 1 36 3 is_stmt 1 view .LVU77
# ft_putnbr_fd.c:36: 		read_val = write(fd, "-", 1);
	.loc 1 36 14 is_stmt 0 view .LVU78
	movl	$1, %edx	#,
	leaq	.LC2(%rip), %rsi	#, tmp115
.LVL27:
	.loc 1 36 14 view .LVU79
	movl	%r12d, %edi	# fd,
.LVL28:
	.loc 1 36 14 view .LVU80
	vzeroupper
.LVL29:
	call	write@PLT	#
.LVL30:
	.loc 1 39 2 is_stmt 1 view .LVU81
# ft_putnbr_fd.c:39: 	if (read_val < 0)
	.loc 1 39 5 is_stmt 0 view .LVU82
	testl	%eax, %eax	# tmp140
	jns	.L4	#,
.L3:
# ft_putnbr_fd.c:40: 		return (-1);
	.loc 1 40 10 view .LVU83
	movl	$-1, %esi	#, pow
	jmp	.L5	#
.LVL31:
.L28:
	.loc 1 40 10 view .LVU84
.LBE18:
.LBE21:
# ft_putnbr_fd.c:75: }
	.loc 1 75 1 view .LVU85
	call	__stack_chk_fail@PLT	#
.LVL32:
	.cfi_endproc
.LFE53:
	.size	ft_putnbr_fd, .-ft_putnbr_fd
	.section	.rodata.cst32,"aM",@progbits,32
	.align 32
.LC0:
	.long	1
	.long	10
	.long	100
	.long	1000
	.long	10000
	.long	100000
	.long	1000000
	.long	10000000
	.section	.rodata.cst8,"aM",@progbits,8
	.align 8
.LC1:
	.long	100000000
	.long	1000000000
	.text
.Letext0:
	.file 2 "/usr/lib/gcc/x86_64-linux-gnu/13/include/stddef.h"
	.file 3 "/usr/include/x86_64-linux-gnu/bits/types.h"
	.file 4 "/usr/include/x86_64-linux-gnu/sys/types.h"
	.file 5 "/usr/include/unistd.h"
	.section	.note.GNU-stack,"",@progbits
	.section	.note.gnu.property,"a"
	.align 8
	.long	1f - 0f
	.long	4f - 1f
	.long	5
0:
	.string	"GNU"
1:
	.align 8
	.long	0xc0000002
	.long	3f - 2f
2:
	.long	0x3
3:
	.align 8
4:

/0              0           0     0     644     11771     `
	.file	"ft_lstnew_bonus.c"
# GNU C17 (Ubuntu 13.2.0-23ubuntu4) version 13.2.0 (x86_64-linux-gnu)
#	compiled by GNU C version 13.2.0, GMP version 6.3.0, MPFR version 4.2.1, MPC version 1.3.1, isl version isl-0.26-GMP

# GGC heuristics: --param ggc-min-expand=100 --param ggc-min-heapsize=131072
# options passed: -march=skylake -mmmx -mpopcnt -msse -msse2 -msse3 -mssse3 -msse4.1 -msse4.2 -mavx -mno-sse4a -mno-fma4 -mno-xop -mfma -mno-avx512f -mbmi -mbmi2 -maes -mpclmul -mno-avx512vl -mno-avx512bw -mno-avx512dq -mno-avx512cd -mno-avx512er -mno-avx512pf -mno-avx512vbmi -mno-avx512ifma -mno-avx5124vnniw -mno-avx5124fmaps -mno-avx512vpopcntdq -mno-avx512vbmi2 -mno-gfni -mno-vpclmulqdq -mno-avx512vnni -mno-avx512bitalg -mno-avx512bf16 -mno-avx512vp2intersect -mno-3dnow -madx -mabm -mno-cldemote -mclflushopt -mno-clwb -mno-clzero -mcx16 -mno-enqcmd -mf16c -mfsgsbase -mfxsr -mhle -msahf -mno-lwp -mlzcnt -mmovbe -mno-movdir64b -mno-movdiri -mno-mwaitx -mno-pconfig -mno-pku -mno-prefetchwt1 -mprfchw -mno-ptwrite -mno-rdpid -mrdrnd -mrdseed -mrtm -mno-serialize -msgx -mno-sha -mno-shstk -mno-tbm -mno-tsxldtrk -mno-vaes -mno-waitpkg -mno-wbnoinvd -mxsave -mxsavec -mxsaveopt -mxsaves -mno-amx-tile -mno-amx-int8 -mno-amx-bf16 -mno-uintr -mno-hreset -mno-kl -mno-widekl -mno-avxvnni -mno-avx512fp16 -mno-avxifma -mno-avxvnniint8 -mno-avxneconvert -mno-cmpccxadd -mno-amx-fp16 -mno-prefetchi -mno-raoint -mno-amx-complex --param=l1-cache-size=32 --param=l1-cache-line-size=64 --param=l2-cache-size=16384 -mtune=skylake -mavx2 -g -Ofast -p -fasynchronous-unwind-tables -fstack-protector-strong -fstack-clash-protection -fcf-protection
	.text
.Ltext0:
	.file 0 "/home/fabi/42/cub3D/libft" "ft_lstnew_bonus.c"
	.p2align 4
	.globl	ft_lstnew
	.type	ft_lstnew, @function
ft_lstnew:
.LVL0:
.LFB51:
	.file 1 "ft_lstnew_bonus.c"
	.loc 1 16 1 view -0
	.cfi_startproc
	.loc 1 16 1 is_stmt 0 view .LVU1
	endbr64	
	pushq	%rbp	#
	.cfi_def_cfa_offset 16
	.cfi_offset 6, -16
	movq	%rsp, %rbp	#,
	.cfi_def_cfa_register 6
	pushq	%rbx	#
	subq	$8, %rsp	#,
	.cfi_offset 3, -24
1:	call	*mcount@GOTPCREL(%rip)
# ft_lstnew_bonus.c:16: {
	.loc 1 16 1 view .LVU2
	.loc 1 17 2 is_stmt 1 view .LVU3
	.loc 1 19 2 view .LVU4
# ft_lstnew_bonus.c:16: {
	.loc 1 16 1 is_stmt 0 view .LVU5
	movq	%rdi, %rbx	# tmp86, content
# ft_lstnew_bonus.c:19: 	new = (t_list *)malloc(sizeof(t_list));
	.loc 1 19 18 view .LVU6
	movl	$16, %edi	#,
.LVL1:
	.loc 1 19 18 view .LVU7
	call	malloc@PLT	#
.LVL2:
	.loc 1 20 2 is_stmt 1 view .LVU8
# ft_lstnew_bonus.c:20: 	if (!new)
	.loc 1 20 5 is_stmt 0 view .LVU9
	testq	%rax, %rax	# <retval>
	je	.L1	#,
	.loc 1 22 2 is_stmt 1 view .LVU10
# ft_lstnew_bonus.c:22: 	new->content = content;
	.loc 1 22 15 is_stmt 0 view .LVU11
	movq	%rbx, (%rax)	# content, new_4->content
	.loc 1 23 2 is_stmt 1 view .LVU12
# ft_lstnew_bonus.c:23: 	new->next = NULL;
	.loc 1 23 12 is_stmt 0 view .LVU13
	movq	$0, 8(%rax)	#, new_4->next
	.loc 1 24 2 is_stmt 1 view .LVU14
.L1:
# ft_lstnew_bonus.c:25: }
	.loc 1 25 1 is_stmt 0 view .LVU15
	movq	-8(%rbp), %rbx	#,
.LVL3:
	.loc 1 25 1 view .LVU16
	leave	
	.cfi_def_cfa 7, 8
	ret	
	.cfi_endproc
.LFE51:
	.size	ft_lstnew, .-ft_lstnew
.Letext0:
	.file 2 "../includes/libft.h"
	.file 3 "/usr/lib/gcc/x86_64-linux-gnu/13/include/stddef.h"
	.file 4 "/usr/include/stdlib.h"
	.section	.note.GNU-stack,"",@progbits
	.section	.note.gnu.property,"a"
	.align 8
	.long	1f - 0f
	.long	4f - 1f
	.long	5
0:
	.string	"GNU"
1:
	.align 8
	.long	0xc0000002
	.long	3f - 2f
2:
	.long	0x3
3:
	.align 8
4:

/19             0           0     0     644     9343      `
	.file	"ft_lstadd_front_bonus.c"
# GNU C17 (Ubuntu 13.2.0-23ubuntu4) version 13.2.0 (x86_64-linux-gnu)
#	compiled by GNU C version 13.2.0, GMP version 6.3.0, MPFR version 4.2.1, MPC version 1.3.1, isl version isl-0.26-GMP

# GGC heuristics: --param ggc-min-expand=100 --param ggc-min-heapsize=131072
# options passed: -march=skylake -mmmx -mpopcnt -msse -msse2 -msse3 -mssse3 -msse4.1 -msse4.2 -mavx -mno-sse4a -mno-fma4 -mno-xop -mfma -mno-avx512f -mbmi -mbmi2 -maes -mpclmul -mno-avx512vl -mno-avx512bw -mno-avx512dq -mno-avx512cd -mno-avx512er -mno-avx512pf -mno-avx512vbmi -mno-avx512ifma -mno-avx5124vnniw -mno-avx5124fmaps -mno-avx512vpopcntdq -mno-avx512vbmi2 -mno-gfni -mno-vpclmulqdq -mno-avx512vnni -mno-avx512bitalg -mno-avx512bf16 -mno-avx512vp2intersect -mno-3dnow -madx -mabm -mno-cldemote -mclflushopt -mno-clwb -mno-clzero -mcx16 -mno-enqcmd -mf16c -mfsgsbase -mfxsr -mhle -msahf -mno-lwp -mlzcnt -mmovbe -mno-movdir64b -mno-movdiri -mno-mwaitx -mno-pconfig -mno-pku -mno-prefetchwt1 -mprfchw -mno-ptwrite -mno-rdpid -mrdrnd -mrdseed -mrtm -mno-serialize -msgx -mno-sha -mno-shstk -mno-tbm -mno-tsxldtrk -mno-vaes -mno-waitpkg -mno-wbnoinvd -mxsave -mxsavec -mxsaveopt -mxsaves -mno-amx-tile -mno-amx-int8 -mno-amx-bf16 -mno-uintr -mno-hreset -mno-kl -mno-widekl -mno-avxvnni -mno-avx512fp16 -mno-avxifma -mno-avxvnniint8 -mno-avxneconvert -mno-cmpccxadd -mno-amx-fp16 -mno-prefetchi -mno-raoint -mno-amx-complex --param=l1-cache-size=32 --param=l1-cache-line-size=64 --param=l2-cache-size=16384 -mtune=skylake -mavx2 -g -Ofast -p -fasynchronous-unwind-tables -fstack-protector-strong -fstack-clash-protection -fcf-protection
	.text
.Ltext0:
	.file 0 "/home/fabi/42/cub3D/libft" "ft_lstadd_front_bonus.c"
	.p2align 4
	.globl	ft_lstadd_front
	.type	ft_lstadd_front, @function
ft_lstadd_front:
.LVL0:
.LFB51:
	.file 1 "ft_lstadd_front_bonus.c"
	.loc 1 16 1 view -0
	.cfi_startproc
	.loc 1 16 1 is_stmt 0 view .LVU1
	endbr64	
	pushq	%rbp	#
	.cfi_def_cfa_offset 16
	.cfi_offset 6, -16
	movq	%rsp, %rbp	#,
	.cfi_def_cfa_register 6
1:	call	*mcount@GOTPCREL(%rip)
# ft_lstadd_front_bonus.c:16: {
	.loc 1 16 1 view .LVU2
	.loc 1 17 2 is_stmt 1 view .LVU3
# ft_lstadd_front_bonus.c:17: 	if (!lst)
	.loc 1 17 5 is_stmt 0 view .LVU4
	testq	%rdi, %rdi	# lst
	je	.L6	#,
	.loc 1 19 2 is_stmt 1 view .LVU5
# ft_lstadd_front_bonus.c:19: 	new->next = *lst;
	.loc 1 19 14 is_stmt 0 view .LVU6
	movq	(%rdi), %rax	# *lst_3(D), _1
# ft_lstadd_front_bonus.c:19: 	new->next = *lst;
	.loc 1 19 12 view .LVU7
	movq	%rax, 8(%rsi)	# _1, new_5(D)->next
	.loc 1 20 2 is_stmt 1 view .LVU8
# ft_lstadd_front_bonus.c:20: 	(*lst) = new;
	.loc 1 20 9 is_stmt 0 view .LVU9
	movq	%rsi, (%rdi)	# new, *lst_3(D)
.L6:
# ft_lstadd_front_bonus.c:21: }
	.loc 1 21 1 view .LVU10
	popq	%rbp	#
	.cfi_def_cfa 7, 8
	ret	
	.cfi_endproc
.LFE51:
	.size	ft_lstadd_front, .-ft_lstadd_front
.Letext0:
	.file 2 "../includes/libft.h"
	.section	.note.GNU-stack,"",@progbits
	.section	.note.gnu.property,"a"
	.align 8
	.long	1f - 0f
	.long	4f - 1f
	.long	5
0:
	.string	"GNU"
1:
	.align 8
	.long	0xc0000002
	.long	3f - 2f
2:
	.long	0x3
3:
	.align 8
4:

/44             0           0     0     644     11656     `
	.file	"ft_lstsize_bonus.c"
# GNU C17 (Ubuntu 13.2.0-23ubuntu4) version 13.2.0 (x86_64-linux-gnu)
#	compiled by GNU C version 13.2.0, GMP version 6.3.0, MPFR version 4.2.1, MPC version 1.3.1, isl version isl-0.26-GMP

# GGC heuristics: --param ggc-min-expand=100 --param ggc-min-heapsize=131072
# options passed: -march=skylake -mmmx -mpopcnt -msse -msse2 -msse3 -mssse3 -msse4.1 -msse4.2 -mavx -mno-sse4a -mno-fma4 -mno-xop -mfma -mno-avx512f -mbmi -mbmi2 -maes -mpclmul -mno-avx512vl -mno-avx512bw -mno-avx512dq -mno-avx512cd -mno-avx512er -mno-avx512pf -mno-avx512vbmi -mno-avx512ifma -mno-avx5124vnniw -mno-avx5124fmaps -mno-avx512vpopcntdq -mno-avx512vbmi2 -mno-gfni -mno-vpclmulqdq -mno-avx512vnni -mno-avx512bitalg -mno-avx512bf16 -mno-avx512vp2intersect -mno-3dnow -madx -mabm -mno-cldemote -mclflushopt -mno-clwb -mno-clzero -mcx16 -mno-enqcmd -mf16c -mfsgsbase -mfxsr -mhle -msahf -mno-lwp -mlzcnt -mmovbe -mno-movdir64b -mno-movdiri -mno-mwaitx -mno-pconfig -mno-pku -mno-prefetchwt1 -mprfchw -mno-ptwrite -mno-rdpid -mrdrnd -mrdseed -mrtm -mno-serialize -msgx -mno-sha -mno-shstk -mno-tbm -mno-tsxldtrk -mno-vaes -mno-waitpkg -mno-wbnoinvd -mxsave -mxsavec -mxsaveopt -mxsaves -mno-amx-tile -mno-amx-int8 -mno-amx-bf16 -mno-uintr -mno-hreset -mno-kl -mno-widekl -mno-avxvnni -mno-avx512fp16 -mno-avxifma -mno-avxvnniint8 -mno-avxneconvert -mno-cmpccxadd -mno-amx-fp16 -mno-prefetchi -mno-raoint -mno-amx-complex --param=l1-cache-size=32 --param=l1-cache-line-size=64 --param=l2-cache-size=16384 -mtune=skylake -mavx2 -g -Ofast -p -fasynchronous-unwind-tables -fstack-protector-strong -fstack-clash-protection -fcf-protection
	.text
.Ltext0:
	.file 0 "/home/fabi/42/cub3D/libft" "ft_lstsize_bonus.c"
	.p2align 4
	.globl	ft_lstsize
	.type	ft_lstsize, @function
ft_lstsize:
.LVL0:
.LFB51:
	.file 1 "ft_lstsize_bonus.c"
	.loc 1 16 1 view -0
	.cfi_startproc
	.loc 1 16 1 is_stmt 0 view .LVU1
	endbr64	
	pushq	%rbp	#
	.cfi_def_cfa_offset 16
	.cfi_offset 6, -16
	movq	%rsp, %rbp	#,
	.cfi_def_cfa_register 6
1:	call	*mcount@GOTPCREL(%rip)
# ft_lstsize_bonus.c:16: {
	.loc 1 16 1 view .LVU2
	.loc 1 17 2 is_stmt 1 view .LVU3
	.loc 1 19 2 view .LVU4
# ft_lstsize_bonus.c:19: 	if (!lst)
	.loc 1 19 5 is_stmt 0 view .LVU5
	testq	%rdi, %rdi	# lst
	je	.L5	#,
.LVL1:
	.loc 1 22 9 is_stmt 1 view .LVU6
# ft_lstsize_bonus.c:22: 	while (lst->next)
	.loc 1 22 12 is_stmt 0 view .LVU7
	movq	8(%rdi), %rdx	# lst_5(D)->next, _1
# ft_lstsize_bonus.c:22: 	while (lst->next)
	.loc 1 22 9 view .LVU8
	testq	%rdx, %rdx	# _1
	je	.L6	#,
# ft_lstsize_bonus.c:21: 	size = 1;
	.loc 1 21 7 view .LVU9
	movl	$1, %eax	#, size
.LVL2:
	.p2align 4,,10
	.p2align 3
.L4:
	.loc 1 24 3 is_stmt 1 view .LVU10
# ft_lstsize_bonus.c:22: 	while (lst->next)
	.loc 1 22 12 is_stmt 0 view .LVU11
	movq	8(%rdx), %rdx	# MEM[(struct t_list *)_12].next, _1
# ft_lstsize_bonus.c:24: 		size++;
	.loc 1 24 7 view .LVU12
	incq	%rax	# size
.LVL3:
	.loc 1 25 3 is_stmt 1 view .LVU13
	.loc 1 22 9 view .LVU14
	testq	%rdx, %rdx	# _1
	jne	.L4	#,
# ft_lstsize_bonus.c:28: }
	.loc 1 28 1 is_stmt 0 view .LVU15
	popq	%rbp	#
	.cfi_remember_state
	.cfi_def_cfa 7, 8
	ret	
.LVL4:
	.p2align 4,,10
	.p2align 3
.L5:
	.cfi_restore_state
# ft_lstsize_bonus.c:20: 		return (0);
	.loc 1 20 10 view .LVU16
	xorl	%eax, %eax	# <retval>
# ft_lstsize_bonus.c:28: }
	.loc 1 28 1 view .LVU17
	popq	%rbp	#
	.cfi_remember_state
	.cfi_def_cfa 7, 8
	ret	
.LVL5:
	.p2align 4,,10
	.p2align 3
.L6:
	.cfi_restore_state
# ft_lstsize_bonus.c:22: 	while (lst->next)
	.loc 1 22 9 view .LVU18
	movl	$1, %eax	#, <retval>
	.loc 1 27 2 is_stmt 1 view .LVU19
# ft_lstsize_bonus.c:28: }
	.loc 1 28 1 is_stmt 0 view .LVU20
	popq	%rbp	#
	.cfi_def_cfa 7, 8
	ret	
	.cfi_endproc
.LFE51:
	.size	ft_lstsize, .-ft_lstsize
.Letext0:
	.file 2 "../includes/libft.h"
	.file 3 "/usr/lib/gcc/x86_64-linux-gnu/13/include/stddef.h"
	.section	.note.GNU-stack,"",@progbits
	.section	.note.gnu.property,"a"
	.align 8
	.long	1f - 0f
	.long	4f - 1f
	.long	5
0:
	.string	"GNU"
1:
	.align 8
	.long	0xc0000002
	.long	3f - 2f
2:
	.long	0x3
3:
	.align 8
4:
/64             0           0     0     644     10036     `
	.file	"ft_lstlast_bonus.c"
# GNU C17 (Ubuntu 13.2.0-23ubuntu4) version 13.2.0 (x86_64-linux-gnu)
#	compiled by GNU C version 13.2.0, GMP version 6.3.0, MPFR version 4.2.1, MPC version 1.3.1, isl version isl-0.26-GMP

# GGC heuristics: --param ggc-min-expand=100 --param ggc-min-heapsize=131072
# options passed: -march=skylake -mmmx -mpopcnt -msse -msse2 -msse3 -mssse3 -msse4.1 -msse4.2 -mavx -mno-sse4a -mno-fma4 -mno-xop -mfma -mno-avx512f -mbmi -mbmi2 -maes -mpclmul -mno-avx512vl -mno-avx512bw -mno-avx512dq -mno-avx512cd -mno-avx512er -mno-avx512pf -mno-avx512vbmi -mno-avx512ifma -mno-avx5124vnniw -mno-avx5124fmaps -mno-avx512vpopcntdq -mno-avx512vbmi2 -mno-gfni -mno-vpclmulqdq -mno-avx512vnni -mno-avx512bitalg -mno-avx512bf16 -mno-avx512vp2intersect -mno-3dnow -madx -mabm -mno-cldemote -mclflushopt -mno-clwb -mno-clzero -mcx16 -mno-enqcmd -mf16c -mfsgsbase -mfxsr -mhle -msahf -mno-lwp -mlzcnt -mmovbe -mno-movdir64b -mno-movdiri -mno-mwaitx -mno-pconfig -mno-pku -mno-prefetchwt1 -mprfchw -mno-ptwrite -mno-rdpid -mrdrnd -mrdseed -mrtm -mno-serialize -msgx -mno-sha -mno-shstk -mno-tbm -mno-tsxldtrk -mno-vaes -mno-waitpkg -mno-wbnoinvd -mxsave -mxsavec -mxsaveopt -mxsaves -mno-amx-tile -mno-amx-int8 -mno-amx-bf16 -mno-uintr -mno-hreset -mno-kl -mno-widekl -mno-avxvnni -mno-avx512fp16 -mno-avxifma -mno-avxvnniint8 -mno-avxneconvert -mno-cmpccxadd -mno-amx-fp16 -mno-prefetchi -mno-raoint -mno-amx-complex --param=l1-cache-size=32 --param=l1-cache-line-size=64 --param=l2-cache-size=16384 -mtune=skylake -mavx2 -g -Ofast -p -fasynchronous-unwind-tables -fstack-protector-strong -fstack-clash-protection -fcf-protection
	.text
.Ltext0:
	.file 0 "/home/fabi/42/cub3D/libft" "ft_lstlast_bonus.c"
	.p2align 4
	.globl	ft_lstlast
	.type	ft_lstlast, @function
ft_lstlast:
.LVL0:
.LFB51:
	.file 1 "ft_lstlast_bonus.c"
	.loc 1 16 1 view -0
	.cfi_startproc
	.loc 1 16 1 is_stmt 0 view .LVU1
	endbr64	
	pushq	%rbp	#
	.cfi_def_cfa_offset 16
	.cfi_offset 6, -16
	movq	%rsp, %rbp	#,
	.cfi_def_cfa_register 6
1:	call	*mcount@GOTPCREL(%rip)
# ft_lstlast_bonus.c:16: {
	.loc 1 16 1 view .LVU2
	.loc 1 17 2 is_stmt 1 view .LVU3
# ft_lstlast_bonus.c:17: 	if (!lst)
	.loc 1 17 5 is_stmt 0 view .LVU4
	testq	%rdi, %rdi	# lst
	je	.L4	#,
.LVL1:
	.p2align 4,,10
	.p2align 3
.L3:
	.loc 1 19 9 is_stmt 1 view .LVU5
	movq	%rdi, %rax	# lst, <retval>
# ft_lstlast_bonus.c:19: 	while (lst->next)
	.loc 1 19 12 is_stmt 0 view .LVU6
	movq	8(%rdi), %rdi	# lst_2->next, lst
.LVL2:
# ft_lstlast_bonus.c:19: 	while (lst->next)
	.loc 1 19 9 view .LVU7
	testq	%rdi, %rdi	# lst
	jne	.L3	#,
# ft_lstlast_bonus.c:22: }
	.loc 1 22 1 view .LVU8
	popq	%rbp	#
	.cfi_remember_state
	.cfi_def_cfa 7, 8
	ret	
.LVL3:
.L4:
	.cfi_restore_state
# ft_lstlast_bonus.c:18: 		return (NULL);
	.loc 1 18 10 view .LVU9
	xorl	%eax, %eax	# <retval>
# ft_lstlast_bonus.c:22: }
	.loc 1 22 1 view .LVU10
	popq	%rbp	#
	.cfi_def_cfa 7, 8
	ret	
	.cfi_endproc
.LFE51:
	.size	ft_lstlast, .-ft_lstlast
.Letext0:
	.file 2 "../includes/libft.h"
	.section	.note.GNU-stack,"",@progbits
	.section	.note.gnu.property,"a"
	.align 8
	.long	1f - 0f
	.long	4f - 1f
	.long	5
0:
	.string	"GNU"
1:
	.align 8
	.long	0xc0000002
	.long	3f - 2f
2:
	.long	0x3
3:
	.align 8
4:
/84             0           0     0     644     11176     `
	.file	"ft_lstadd_back_bonus.c"
# GNU C17 (Ubuntu 13.2.0-23ubuntu4) version 13.2.0 (x86_64-linux-gnu)
#	compiled by GNU C version 13.2.0, GMP version 6.3.0, MPFR version 4.2.1, MPC version 1.3.1, isl version isl-0.26-GMP

# GGC heuristics: --param ggc-min-expand=100 --param ggc-min-heapsize=131072
# options passed: -march=skylake -mmmx -mpopcnt -msse -msse2 -msse3 -mssse3 -msse4.1 -msse4.2 -mavx -mno-sse4a -mno-fma4 -mno-xop -mfma -mno-avx512f -mbmi -mbmi2 -maes -mpclmul -mno-avx512vl -mno-avx512bw -mno-avx512dq -mno-avx512cd -mno-avx512er -mno-avx512pf -mno-avx512vbmi -mno-avx512ifma -mno-avx5124vnniw -mno-avx5124fmaps -mno-avx512vpopcntdq -mno-avx512vbmi2 -mno-gfni -mno-vpclmulqdq -mno-avx512vnni -mno-avx512bitalg -mno-avx512bf16 -mno-avx512vp2intersect -mno-3dnow -madx -mabm -mno-cldemote -mclflushopt -mno-clwb -mno-clzero -mcx16 -mno-enqcmd -mf16c -mfsgsbase -mfxsr -mhle -msahf -mno-lwp -mlzcnt -mmovbe -mno-movdir64b -mno-movdiri -mno-mwaitx -mno-pconfig -mno-pku -mno-prefetchwt1 -mprfchw -mno-ptwrite -mno-rdpid -mrdrnd -mrdseed -mrtm -mno-serialize -msgx -mno-sha -mno-shstk -mno-tbm -mno-tsxldtrk -mno-vaes -mno-waitpkg -mno-wbnoinvd -mxsave -mxsavec -mxsaveopt -mxsaves -mno-amx-tile -mno-amx-int8 -mno-amx-bf16 -mno-uintr -mno-hreset -mno-kl -mno-widekl -mno-avxvnni -mno-avx512fp16 -mno-avxifma -mno-avxvnniint8 -mno-avxneconvert -mno-cmpccxadd -mno-amx-fp16 -mno-prefetchi -mno-raoint -mno-amx-complex --param=l1-cache-size=32 --param=l1-cache-line-size=64 --param=l2-cache-size=16384 -mtune=skylake -mavx2 -g -Ofast -p -fasynchronous-unwind-tables -fstack-protector-strong -fstack-clash-protection -fcf-protection
	.text
.Ltext0:
	.file 0 "/home/fabi/42/cub3D/libft" "ft_lstadd_back_bonus.c"
	.p2align 4
	.globl	ft_lstadd_back
	.type	ft_lstadd_back, @function
ft_lstadd_back:
.LVL0:
.LFB51:
	.file 1 "ft_lstadd_back_bonus.c"
	.loc 1 16 1 view -0
	.cfi_startproc
	.loc 1 16 1 is_stmt 0 view .LVU1
	endbr64	
	pushq	%rbp	#
	.cfi_def_cfa_offset 16
	.cfi_offset 6, -16
	movq	%rsp, %rbp	#,
	.cfi_def_cfa_register 6
1:	call	*mcount@GOTPCREL(%rip)
# ft_lstadd_back_bonus.c:16: {
	.loc 1 16 1 view .LVU2
	.loc 1 17 2 is_stmt 1 view .LVU3
# ft_lstadd_back_bonus.c:17: 	if (!lst)
	.loc 1 17 5 is_stmt 0 view .LVU4
	testq	%rdi, %rdi	# lst
	je	.L11	#,
	.loc 1 19 2 is_stmt 1 view .LVU5
# ft_lstadd_back_bonus.c:19: 	if (!(*lst))
	.loc 1 19 8 is_stmt 0 view .LVU6
	movq	(%rdi), %rdx	# *lst_7(D), prephitmp_15
# ft_lstadd_back_bonus.c:19: 	if (!(*lst))
	.loc 1 19 5 view .LVU7
	testq	%rdx, %rdx	# prephitmp_15
	je	.L3	#,
	.loc 1 24 9 is_stmt 1 view .LVU8
# ft_lstadd_back_bonus.c:24: 	while ((*lst)->next)
	.loc 1 24 15 is_stmt 0 view .LVU9
	movq	8(%rdx), %rax	# _1->next, _3
# ft_lstadd_back_bonus.c:24: 	while ((*lst)->next)
	.loc 1 24 9 view .LVU10
	testq	%rax, %rax	# _3
	je	.L5	#,
.LVL1:
	.p2align 4,,10
	.p2align 3
.L4:
	.loc 1 25 3 is_stmt 1 view .LVU11
	.loc 1 24 9 view .LVU12
	movq	%rax, %rdx	# _3, prephitmp_15
# ft_lstadd_back_bonus.c:24: 	while ((*lst)->next)
	.loc 1 24 15 is_stmt 0 view .LVU13
	movq	8(%rax), %rax	# prephitmp_11->next, _3
# ft_lstadd_back_bonus.c:24: 	while ((*lst)->next)
	.loc 1 24 9 view .LVU14
	testq	%rax, %rax	# _3
	jne	.L4	#,
.LVL2:
.L5:
	.loc 1 26 2 is_stmt 1 view .LVU15
# ft_lstadd_back_bonus.c:26: 	(*lst)->next = new;
	.loc 1 26 15 is_stmt 0 view .LVU16
	movq	%rsi, 8(%rdx)	# new, _16->next
.L11:
# ft_lstadd_back_bonus.c:27: }
	.loc 1 27 1 view .LVU17
	popq	%rbp	#
	.cfi_remember_state
	.cfi_def_cfa 7, 8
	ret	
.LVL3:
	.p2align 4,,10
	.p2align 3
.L3:
	.cfi_restore_state
	.loc 1 21 3 is_stmt 1 view .LVU18
# ft_lstadd_back_bonus.c:21: 		*lst = new;
	.loc 1 21 8 is_stmt 0 view .LVU19
	movq	%rsi, (%rdi)	# new, *lst_7(D)
	.loc 1 22 3 is_stmt 1 view .LVU20
# ft_lstadd_back_bonus.c:27: }
	.loc 1 27 1 is_stmt 0 view .LVU21
	popq	%rbp	#
	.cfi_def_cfa 7, 8
	ret	
	.cfi_endproc
.LFE51:
	.size	ft_lstadd_back, .-ft_lstadd_back
.Letext0:
	.file 2 "../includes/libft.h"
	.section	.note.GNU-stack,"",@progbits
	.section	.note.gnu.property,"a"
	.align 8
	.long	1f - 0f
	.long	4f - 1f
	.long	5
0:
	.string	"GNU"
1:
	.align 8
	.long	0xc0000002
	.long	3f - 2f
2:
	.long	0x3
3:
	.align 8
4:
/108            0           0     0     644     12294     `
	.file	"ft_lstdelone_bonus.c"
# GNU C17 (Ubuntu 13.2.0-23ubuntu4) version 13.2.0 (x86_64-linux-gnu)
#	compiled by GNU C version 13.2.0, GMP version 6.3.0, MPFR version 4.2.1, MPC version 1.3.1, isl version isl-0.26-GMP

# GGC heuristics: --param ggc-min-expand=100 --param ggc-min-heapsize=131072
# options passed: -march=skylake -mmmx -mpopcnt -msse -msse2 -msse3 -mssse3 -msse4.1 -msse4.2 -mavx -mno-sse4a -mno-fma4 -mno-xop -mfma -mno-avx512f -mbmi -mbmi2 -maes -mpclmul -mno-avx512vl -mno-avx512bw -mno-avx512dq -mno-avx512cd -mno-avx512er -mno-avx512pf -mno-avx512vbmi -mno-avx512ifma -mno-avx5124vnniw -mno-avx5124fmaps -mno-avx512vpopcntdq -mno-avx512vbmi2 -mno-gfni -mno-vpclmulqdq -mno-avx512vnni -mno-avx512bitalg -mno-avx512bf16 -mno-avx512vp2intersect -mno-3dnow -madx -mabm -mno-cldemote -mclflushopt -mno-clwb -mno-clzero -mcx16 -mno-enqcmd -mf16c -mfsgsbase -mfxsr -mhle -msahf -mno-lwp -mlzcnt -mmovbe -mno-movdir64b -mno-movdiri -mno-mwaitx -mno-pconfig -mno-pku -mno-prefetchwt1 -mprfchw -mno-ptwrite -mno-rdpid -mrdrnd -mrdseed -mrtm -mno-serialize -msgx -mno-sha -mno-shstk -mno-tbm -mno-tsxldtrk -mno-vaes -mno-waitpkg -mno-wbnoinvd -mxsave -mxsavec -mxsaveopt -mxsaves -mno-amx-tile -mno-amx-int8 -mno-amx-bf16 -mno-uintr -mno-hreset -mno-kl -mno-widekl -mno-avxvnni -mno-avx512fp16 -mno-avxifma -mno-avxvnniint8 -mno-avxneconvert -mno-cmpccxadd -mno-amx-fp16 -mno-prefetchi -mno-raoint -mno-amx-complex --param=l1-cache-size=32 --param=l1-cache-line-size=64 --param=l2-cache-size=16384 -mtune=skylake -mavx2 -g -Ofast -p -fasynchronous-unwind-tables -fstack-protector-strong -fstack-clash-protection -fcf-protection
	.text
.Ltext0:
	.file 0 "/home/fabi/42/cub3D/libft" "ft_lstdelone_bonus.c"
	.p2align 4
	.globl	ft_lstdelone
	.type	ft_lstdelone, @function
ft_lstdelone:
.LVL0:
.LFB51:
	.file 1 "ft_lstdelone_bonus.c"
	.loc 1 16 1 view -0
	.cfi_startproc
	.loc 1 16 1 is_stmt 0 view .LVU1
	endbr64	
	pushq	%rbp	#
	.cfi_def_cfa_offset 16
	.cfi_offset 6, -16
	movq	%rsp, %rbp	#,
	.cfi_def_cfa_register 6
	pushq	%rbx	#
	subq	$8, %rsp	#,
	.cfi_offset 3, -24
1:	call	*mcount@GOTPCREL(%rip)
# ft_lstdelone_bonus.c:16: {
	.loc 1 16 1 view .LVU2
	.loc 1 17 2 is_stmt 1 view .LVU3
# ft_lstdelone_bonus.c:16: {
	.loc 1 16 1 is_stmt 0 view .LVU4
	movq	%rdi, %rbx	# tmp86, lst
# ft_lstdelone_bonus.c:17: 	if (!lst)
	.loc 1 17 5 view .LVU5
	testq	%rdi, %rdi	# lst
	je	.L3	#,
	.loc 1 19 2 is_stmt 1 view .LVU6
	movq	(%rdi), %rdi	# lst_3(D)->content, lst_3(D)->content
.LVL1:
	.loc 1 19 2 is_stmt 0 view .LVU7
	call	*%rsi	# del
.LVL2:
	.loc 1 20 2 is_stmt 1 view .LVU8
	movq	%rbx, %rdi	# lst,
# ft_lstdelone_bonus.c:21: }
	.loc 1 21 1 is_stmt 0 view .LVU9
	movq	-8(%rbp), %rbx	#,
.LVL3:
	.loc 1 21 1 view .LVU10
	leave	
	.cfi_remember_state
	.cfi_def_cfa 7, 8
# ft_lstdelone_bonus.c:20: 	free(lst);
	.loc 1 20 2 view .LVU11
	jmp	free@PLT	#
.LVL4:
	.p2align 4,,10
	.p2align 3
.L3:
	.cfi_restore_state
# ft_lstdelone_bonus.c:21: }
	.loc 1 21 1 view .LVU12
	movq	-8(%rbp), %rbx	#,
.LVL5:
	.loc 1 21 1 view .LVU13
	leave	
	.cfi_def_cfa 7, 8
	ret	
	.cfi_endproc
.LFE51:
	.size	ft_lstdelone, .-ft_lstdelone
.Letext0:
	.file 2 "../includes/libft.h"
	.file 3 "/usr/include/stdlib.h"
	.section	.note.GNU-stack,"",@progbits
	.section	.note.gnu.property,"a"
	.align 8
	.long	1f - 0f
	.long	4f - 1f
	.long	5
0:
	.string	"GNU"
1:
	.align 8
	.long	0xc0000002
	.long	3f - 2f
2:
	.long	0x3
3:
	.align 8
4:
/130            0           0     0     644     13256     `
	.file	"ft_lstclear_bonus.c"
# GNU C17 (Ubuntu 13.2.0-23ubuntu4) version 13.2.0 (x86_64-linux-gnu)
#	compiled by GNU C version 13.2.0, GMP version 6.3.0, MPFR version 4.2.1, MPC version 1.3.1, isl version isl-0.26-GMP

# GGC heuristics: --param ggc-min-expand=100 --param ggc-min-heapsize=131072
